(dp0
(I16
I6
tp1
(ilibs
_4
p2
(dp3
S'aiming'
p4
I0
sS'multitarget'
p5
I01
sS'cost'
p6
I200
sS'target'
p7
NsS'i'
p8
I300
sS'strength'
p9
I40
sS'radius'
p10
I40
sS'rrange'
p11
(lp12
(I14
I6
tp13
a(I15
I5
tp14
a(I15
I6
tp15
a(I15
I7
tp16
a(I16
I4
tp17
a(I16
I5
tp18
a(I16
I6
tp19
a(I16
I7
tp20
a(I16
I8
tp21
a(I17
I5
tp22
a(I17
I6
tp23
a(I17
I7
tp24
a(I18
I6
tp25
asS'round_placed'
p26
I30
sS'desc'
p27
S'very strong, slow shooter, very short range'
p28
sS'speed'
p29
I300
sS'string'
p30
S'$'
p31
sS'name'
p32
S'Bash Tower'
p33
sbs(I6
I9
tp34
(ilibs
_3
p35
(dp36
g4
I0
sg9
I20
sg26
I30
sg7
Nsg8
I300
sg6
I100
sg10
I180
sg11
(lp37
(I0
I3
tp38
a(I0
I4
tp39
a(I0
I5
tp40
a(I0
I6
tp41
a(I0
I7
tp42
a(I0
I8
tp43
a(I0
I9
tp44
a(I0
I10
tp45
a(I0
I11
tp46
a(I0
I12
tp47
a(I0
I13
tp48
a(I0
I14
tp49
a(I0
I15
tp50
a(I1
I2
tp51
a(I1
I3
tp52
a(I1
I4
tp53
a(I1
I5
tp54
a(I1
I6
tp55
a(I1
I7
tp56
a(I1
I8
tp57
a(I1
I9
tp58
a(I1
I10
tp59
a(I1
I11
tp60
a(I1
I12
tp61
a(I1
I13
tp62
a(I1
I14
tp63
a(I1
I15
tp64
a(I1
I16
tp65
a(I2
I1
tp66
a(I2
I2
tp67
a(I2
I3
tp68
a(I2
I4
tp69
a(I2
I5
tp70
a(I2
I6
tp71
a(I2
I7
tp72
a(I2
I8
tp73
a(I2
I9
tp74
a(I2
I10
tp75
a(I2
I11
tp76
a(I2
I12
tp77
a(I2
I13
tp78
a(I2
I14
tp79
a(I2
I15
tp80
a(I2
I16
tp81
a(I2
I17
tp82
a(I3
I1
tp83
a(I3
I2
tp84
a(I3
I3
tp85
a(I3
I4
tp86
a(I3
I5
tp87
a(I3
I6
tp88
a(I3
I7
tp89
a(I3
I8
tp90
a(I3
I9
tp91
a(I3
I10
tp92
a(I3
I11
tp93
a(I3
I12
tp94
a(I3
I13
tp95
a(I3
I14
tp96
a(I3
I15
tp97
a(I3
I16
tp98
a(I3
I17
tp99
a(I4
I1
tp100
a(I4
I2
tp101
a(I4
I3
tp102
a(I4
I4
tp103
a(I4
I5
tp104
a(I4
I6
tp105
a(I4
I7
tp106
a(I4
I8
tp107
a(I4
I9
tp108
a(I4
I10
tp109
a(I4
I11
tp110
a(I4
I12
tp111
a(I4
I13
tp112
a(I4
I14
tp113
a(I4
I15
tp114
a(I4
I16
tp115
a(I4
I17
tp116
a(I5
I1
tp117
a(I5
I2
tp118
a(I5
I3
tp119
a(I5
I4
tp120
a(I5
I5
tp121
a(I5
I6
tp122
a(I5
I7
tp123
a(I5
I8
tp124
a(I5
I9
tp125
a(I5
I10
tp126
a(I5
I11
tp127
a(I5
I12
tp128
a(I5
I13
tp129
a(I5
I14
tp130
a(I5
I15
tp131
a(I5
I16
tp132
a(I5
I17
tp133
a(I6
I0
tp134
a(I6
I1
tp135
a(I6
I2
tp136
a(I6
I3
tp137
a(I6
I4
tp138
a(I6
I5
tp139
a(I6
I6
tp140
a(I6
I7
tp141
a(I6
I8
tp142
a(I6
I9
tp143
a(I6
I10
tp144
a(I6
I11
tp145
a(I6
I12
tp146
a(I6
I13
tp147
a(I6
I14
tp148
a(I6
I15
tp149
a(I6
I16
tp150
a(I6
I17
tp151
a(I6
I18
tp152
a(I7
I1
tp153
a(I7
I2
tp154
a(I7
I3
tp155
a(I7
I4
tp156
a(I7
I5
tp157
a(I7
I6
tp158
a(I7
I7
tp159
a(I7
I8
tp160
a(I7
I9
tp161
a(I7
I10
tp162
a(I7
I11
tp163
a(I7
I12
tp164
a(I7
I13
tp165
a(I7
I14
tp166
a(I7
I15
tp167
a(I7
I16
tp168
a(I7
I17
tp169
a(I8
I1
tp170
a(I8
I2
tp171
a(I8
I3
tp172
a(I8
I4
tp173
a(I8
I5
tp174
a(I8
I6
tp175
a(I8
I7
tp176
a(I8
I8
tp177
a(I8
I9
tp178
a(I8
I10
tp179
a(I8
I11
tp180
a(I8
I12
tp181
a(I8
I13
tp182
a(I8
I14
tp183
a(I8
I15
tp184
a(I8
I16
tp185
a(I8
I17
tp186
a(I9
I1
tp187
a(I9
I2
tp188
a(I9
I3
tp189
a(I9
I4
tp190
a(I9
I5
tp191
a(I9
I6
tp192
a(I9
I7
tp193
a(I9
I8
tp194
a(I9
I9
tp195
a(I9
I10
tp196
a(I9
I11
tp197
a(I9
I12
tp198
a(I9
I13
tp199
a(I9
I14
tp200
a(I9
I15
tp201
a(I9
I16
tp202
a(I9
I17
tp203
a(I10
I1
tp204
a(I10
I2
tp205
a(I10
I3
tp206
a(I10
I4
tp207
a(I10
I5
tp208
a(I10
I6
tp209
a(I10
I7
tp210
a(I10
I8
tp211
a(I10
I9
tp212
a(I10
I10
tp213
a(I10
I11
tp214
a(I10
I12
tp215
a(I10
I13
tp216
a(I10
I14
tp217
a(I10
I15
tp218
a(I10
I16
tp219
a(I10
I17
tp220
a(I11
I2
tp221
a(I11
I3
tp222
a(I11
I4
tp223
a(I11
I5
tp224
a(I11
I6
tp225
a(I11
I7
tp226
a(I11
I8
tp227
a(I11
I9
tp228
a(I11
I10
tp229
a(I11
I11
tp230
a(I11
I12
tp231
a(I11
I13
tp232
a(I11
I14
tp233
a(I11
I15
tp234
a(I11
I16
tp235
a(I12
I3
tp236
a(I12
I4
tp237
a(I12
I5
tp238
a(I12
I6
tp239
a(I12
I7
tp240
a(I12
I8
tp241
a(I12
I9
tp242
a(I12
I10
tp243
a(I12
I11
tp244
a(I12
I12
tp245
a(I12
I13
tp246
a(I12
I14
tp247
a(I12
I15
tp248
a(I13
I4
tp249
a(I13
I5
tp250
a(I13
I6
tp251
a(I13
I7
tp252
a(I13
I8
tp253
a(I13
I9
tp254
a(I13
I10
tp255
a(I13
I11
tp256
a(I13
I12
tp257
a(I13
I13
tp258
a(I13
I14
tp259
a(I14
I5
tp260
a(I14
I6
tp261
a(I14
I7
tp262
a(I14
I8
tp263
a(I14
I9
tp264
a(I14
I10
tp265
a(I14
I11
tp266
a(I14
I12
tp267
a(I14
I13
tp268
a(I15
I9
tp269
asg27
S'strong, slow shooter, long range'
p270
sg29
I300
sg30
S'='
p271
sg32
S'Rocket Launcher'
p272
sbs(I10
I17
tp273
(ilibs
_Pellet
p274
(dp275
g9
I10
sg26
I0
sg7
Nsg8
I100
sg11
(lp276
(I7
I17
tp277
a(I8
I15
tp278
a(I8
I16
tp279
a(I8
I17
tp280
a(I8
I18
tp281
a(I8
I19
tp282
a(I9
I15
tp283
a(I9
I16
tp284
a(I9
I17
tp285
a(I9
I18
tp286
a(I9
I19
tp287
a(I10
I14
tp288
a(I10
I15
tp289
a(I10
I16
tp290
a(I10
I17
tp291
a(I10
I18
tp292
a(I10
I19
tp293
a(I11
I15
tp294
a(I11
I16
tp295
a(I11
I17
tp296
a(I11
I18
tp297
a(I11
I19
tp298
a(I12
I15
tp299
a(I12
I16
tp300
a(I12
I17
tp301
a(I12
I18
tp302
a(I12
I19
tp303
a(I13
I17
tp304
asg32
S'Pellet Tower'
p305
sg6
I15
sg10
I60
sS'upgrades'
p306
(lp307
(I300
I60
I100
I20
tp308
asg4
I0
sg29
I100
sg30
S'#'
p309
sg27
S'weak, medium shooter, moderate range'
p310
sbs(I13
I4
tp311
(ilibs
_Pellet
p312
(dp313
g9
I10
sg26
I0
sg7
Nsg8
I100
sg11
(lp314
(I10
I4
tp315
a(I11
I2
tp316
a(I11
I3
tp317
a(I11
I4
tp318
a(I11
I5
tp319
a(I11
I6
tp320
a(I12
I2
tp321
a(I12
I3
tp322
a(I12
I4
tp323
a(I12
I5
tp324
a(I12
I6
tp325
a(I13
I1
tp326
a(I13
I2
tp327
a(I13
I3
tp328
a(I13
I4
tp329
a(I13
I5
tp330
a(I13
I6
tp331
a(I13
I7
tp332
a(I14
I2
tp333
a(I14
I3
tp334
a(I14
I4
tp335
a(I14
I5
tp336
a(I14
I6
tp337
a(I15
I2
tp338
a(I15
I3
tp339
a(I15
I4
tp340
a(I15
I5
tp341
a(I15
I6
tp342
a(I16
I4
tp343
asg32
g305
sg6
I15
sg10
I60
sg306
(lp344
g308
asg4
I0
sg29
I100
sg30
g309
sg27
g310
sbs(I12
I12
tp345
(ilibs
_Pellet
p346
(dp347
g9
I10
sg26
I0
sg7
Nsg8
I100
sg11
(lp348
(I9
I12
tp349
a(I10
I10
tp350
a(I10
I11
tp351
a(I10
I12
tp352
a(I10
I13
tp353
a(I10
I14
tp354
a(I11
I10
tp355
a(I11
I11
tp356
a(I11
I12
tp357
a(I11
I13
tp358
a(I11
I14
tp359
a(I12
I9
tp360
a(I12
I10
tp361
a(I12
I11
tp362
a(I12
I12
tp363
a(I12
I13
tp364
a(I12
I14
tp365
a(I12
I15
tp366
a(I13
I10
tp367
a(I13
I11
tp368
a(I13
I12
tp369
a(I13
I13
tp370
a(I13
I14
tp371
a(I14
I10
tp372
a(I14
I11
tp373
a(I14
I12
tp374
a(I14
I13
tp375
a(I14
I14
tp376
a(I15
I12
tp377
asg32
g305
sg6
I15
sg10
I60
sg306
(lp378
g308
asg4
I0
sg29
I100
sg30
g309
sg27
g310
sbs(I18
I4
tp379
(ilibs
_Pellet
p380
(dp381
g9
I10
sg26
I0
sg7
Nsg8
I100
sg11
(lp382
(I15
I4
tp383
a(I16
I2
tp384
a(I16
I3
tp385
a(I16
I4
tp386
a(I16
I5
tp387
a(I16
I6
tp388
a(I17
I2
tp389
a(I17
I3
tp390
a(I17
I4
tp391
a(I17
I5
tp392
a(I17
I6
tp393
a(I18
I1
tp394
a(I18
I2
tp395
a(I18
I3
tp396
a(I18
I4
tp397
a(I18
I5
tp398
a(I18
I6
tp399
a(I18
I7
tp400
a(I19
I2
tp401
a(I19
I3
tp402
a(I19
I4
tp403
a(I19
I5
tp404
a(I19
I6
tp405
asg32
g305
sg6
I15
sg10
I60
sg306
(lp406
g308
asg4
I0
sg29
I100
sg30
g309
sg27
g310
sbs(I0
I7
tp407
(ilibs
_Pellet
p408
(dp409
g9
I10
sg26
I0
sg7
Nsg8
I100
sg11
(lp410
(I0
I4
tp411
a(I0
I5
tp412
a(I0
I6
tp413
a(I0
I7
tp414
a(I0
I8
tp415
a(I0
I9
tp416
a(I0
I10
tp417
a(I1
I5
tp418
a(I1
I6
tp419
a(I1
I7
tp420
a(I1
I8
tp421
a(I1
I9
tp422
a(I2
I5
tp423
a(I2
I6
tp424
a(I2
I7
tp425
a(I2
I8
tp426
a(I2
I9
tp427
a(I3
I7
tp428
asg32
g305
sg6
I15
sg10
I60
sg306
(lp429
g308
asg4
I0
sg29
I100
sg30
g309
sg27
g310
sbs(I15
I1
tp430
(ilibs
_Pellet
p431
(dp432
g9
I10
sg26
I0
sg7
Nsg8
I100
sg11
(lp433
(I12
I1
tp434
a(I13
I0
tp435
a(I13
I1
tp436
a(I13
I2
tp437
a(I13
I3
tp438
a(I14
I0
tp439
a(I14
I1
tp440
a(I14
I2
tp441
a(I14
I3
tp442
a(I15
I0
tp443
a(I15
I1
tp444
a(I15
I2
tp445
a(I15
I3
tp446
a(I15
I4
tp447
a(I16
I0
tp448
a(I16
I1
tp449
a(I16
I2
tp450
a(I16
I3
tp451
a(I17
I0
tp452
a(I17
I1
tp453
a(I17
I2
tp454
a(I17
I3
tp455
a(I18
I1
tp456
asg32
g305
sg6
I15
sg10
I60
sg306
(lp457
g308
asg4
I0
sg29
I100
sg30
g309
sg27
g310
sbs(I14
I17
tp458
(ilibs
_Pellet
p459
(dp460
g9
I10
sg26
I0
sg7
Nsg8
I100
sg11
(lp461
(I11
I17
tp462
a(I12
I15
tp463
a(I12
I16
tp464
a(I12
I17
tp465
a(I12
I18
tp466
a(I12
I19
tp467
a(I13
I15
tp468
a(I13
I16
tp469
a(I13
I17
tp470
a(I13
I18
tp471
a(I13
I19
tp472
a(I14
I14
tp473
a(I14
I15
tp474
a(I14
I16
tp475
a(I14
I17
tp476
a(I14
I18
tp477
a(I14
I19
tp478
a(I15
I15
tp479
a(I15
I16
tp480
a(I15
I17
tp481
a(I15
I18
tp482
a(I15
I19
tp483
a(I16
I15
tp484
a(I16
I16
tp485
a(I16
I17
tp486
a(I16
I18
tp487
a(I16
I19
tp488
a(I17
I17
tp489
asg32
g305
sg6
I15
sg10
I60
sg306
(lp490
g308
asg4
I0
sg29
I100
sg30
g309
sg27
g310
sbs(I0
I10
tp491
(ilibs
_Pellet
p492
(dp493
g9
I10
sg26
I0
sg7
Nsg8
I100
sg11
(lp494
(I0
I7
tp495
a(I0
I8
tp496
a(I0
I9
tp497
a(I0
I10
tp498
a(I0
I11
tp499
a(I0
I12
tp500
a(I0
I13
tp501
a(I1
I8
tp502
a(I1
I9
tp503
a(I1
I10
tp504
a(I1
I11
tp505
a(I1
I12
tp506
a(I2
I8
tp507
a(I2
I9
tp508
a(I2
I10
tp509
a(I2
I11
tp510
a(I2
I12
tp511
a(I3
I10
tp512
asg32
g305
sg6
I15
sg10
I60
sg306
(lp513
g308
asg4
I0
sg29
I100
sg30
g309
sg27
g310
sbs(I1
I11
tp514
(ilibs
_Pellet
p515
(dp516
g9
I10
sg26
I0
sg7
Nsg8
I100
sg11
(lp517
(I0
I9
tp518
a(I0
I10
tp519
a(I0
I11
tp520
a(I0
I12
tp521
a(I0
I13
tp522
a(I1
I8
tp523
a(I1
I9
tp524
a(I1
I10
tp525
a(I1
I11
tp526
a(I1
I12
tp527
a(I1
I13
tp528
a(I1
I14
tp529
a(I2
I9
tp530
a(I2
I10
tp531
a(I2
I11
tp532
a(I2
I12
tp533
a(I2
I13
tp534
a(I3
I9
tp535
a(I3
I10
tp536
a(I3
I11
tp537
a(I3
I12
tp538
a(I3
I13
tp539
a(I4
I11
tp540
asg32
g305
sg6
I15
sg10
I60
sg306
(lp541
g308
asg4
I0
sg29
I100
sg30
g309
sg27
g310
sbs(I4
I0
tp542
(ilibs
_Pellet
p543
(dp544
g9
I10
sg26
I0
sg7
Nsg8
I100
sg11
(lp545
(I1
I0
tp546
a(I2
I0
tp547
a(I2
I1
tp548
a(I2
I2
tp549
a(I3
I0
tp550
a(I3
I1
tp551
a(I3
I2
tp552
a(I4
I0
tp553
a(I4
I1
tp554
a(I4
I2
tp555
a(I4
I3
tp556
a(I5
I0
tp557
a(I5
I1
tp558
a(I5
I2
tp559
a(I6
I0
tp560
a(I6
I1
tp561
a(I6
I2
tp562
a(I7
I0
tp563
asg32
g305
sg6
I15
sg10
I60
sg306
(lp564
g308
asg4
I0
sg29
I100
sg30
g309
sg27
g310
sbs(I10
I8
tp565
(ilibs
_3
p566
(dp567
g4
I0
sg9
I20
sg26
I30
sg7
Nsg8
I300
sg6
I100
sg10
I180
sg11
(lp568
(I1
I8
tp569
a(I2
I4
tp570
a(I2
I5
tp571
a(I2
I6
tp572
a(I2
I7
tp573
a(I2
I8
tp574
a(I2
I9
tp575
a(I2
I10
tp576
a(I2
I11
tp577
a(I2
I12
tp578
a(I3
I3
tp579
a(I3
I4
tp580
a(I3
I5
tp581
a(I3
I6
tp582
a(I3
I7
tp583
a(I3
I8
tp584
a(I3
I9
tp585
a(I3
I10
tp586
a(I3
I11
tp587
a(I3
I12
tp588
a(I3
I13
tp589
a(I4
I2
tp590
a(I4
I3
tp591
a(I4
I4
tp592
a(I4
I5
tp593
a(I4
I6
tp594
a(I4
I7
tp595
a(I4
I8
tp596
a(I4
I9
tp597
a(I4
I10
tp598
a(I4
I11
tp599
a(I4
I12
tp600
a(I4
I13
tp601
a(I4
I14
tp602
a(I5
I1
tp603
a(I5
I2
tp604
a(I5
I3
tp605
a(I5
I4
tp606
a(I5
I5
tp607
a(I5
I6
tp608
a(I5
I7
tp609
a(I5
I8
tp610
a(I5
I9
tp611
a(I5
I10
tp612
a(I5
I11
tp613
a(I5
I12
tp614
a(I5
I13
tp615
a(I5
I14
tp616
a(I5
I15
tp617
a(I6
I0
tp618
a(I6
I1
tp619
a(I6
I2
tp620
a(I6
I3
tp621
a(I6
I4
tp622
a(I6
I5
tp623
a(I6
I6
tp624
a(I6
I7
tp625
a(I6
I8
tp626
a(I6
I9
tp627
a(I6
I10
tp628
a(I6
I11
tp629
a(I6
I12
tp630
a(I6
I13
tp631
a(I6
I14
tp632
a(I6
I15
tp633
a(I6
I16
tp634
a(I7
I0
tp635
a(I7
I1
tp636
a(I7
I2
tp637
a(I7
I3
tp638
a(I7
I4
tp639
a(I7
I5
tp640
a(I7
I6
tp641
a(I7
I7
tp642
a(I7
I8
tp643
a(I7
I9
tp644
a(I7
I10
tp645
a(I7
I11
tp646
a(I7
I12
tp647
a(I7
I13
tp648
a(I7
I14
tp649
a(I7
I15
tp650
a(I7
I16
tp651
a(I8
I0
tp652
a(I8
I1
tp653
a(I8
I2
tp654
a(I8
I3
tp655
a(I8
I4
tp656
a(I8
I5
tp657
a(I8
I6
tp658
a(I8
I7
tp659
a(I8
I8
tp660
a(I8
I9
tp661
a(I8
I10
tp662
a(I8
I11
tp663
a(I8
I12
tp664
a(I8
I13
tp665
a(I8
I14
tp666
a(I8
I15
tp667
a(I8
I16
tp668
a(I9
I0
tp669
a(I9
I1
tp670
a(I9
I2
tp671
a(I9
I3
tp672
a(I9
I4
tp673
a(I9
I5
tp674
a(I9
I6
tp675
a(I9
I7
tp676
a(I9
I8
tp677
a(I9
I9
tp678
a(I9
I10
tp679
a(I9
I11
tp680
a(I9
I12
tp681
a(I9
I13
tp682
a(I9
I14
tp683
a(I9
I15
tp684
a(I9
I16
tp685
a(I10
I0
tp686
a(I10
I1
tp687
a(I10
I2
tp688
a(I10
I3
tp689
a(I10
I4
tp690
a(I10
I5
tp691
a(I10
I6
tp692
a(I10
I7
tp693
a(I10
I8
tp694
a(I10
I9
tp695
a(I10
I10
tp696
a(I10
I11
tp697
a(I10
I12
tp698
a(I10
I13
tp699
a(I10
I14
tp700
a(I10
I15
tp701
a(I10
I16
tp702
a(I10
I17
tp703
a(I11
I0
tp704
a(I11
I1
tp705
a(I11
I2
tp706
a(I11
I3
tp707
a(I11
I4
tp708
a(I11
I5
tp709
a(I11
I6
tp710
a(I11
I7
tp711
a(I11
I8
tp712
a(I11
I9
tp713
a(I11
I10
tp714
a(I11
I11
tp715
a(I11
I12
tp716
a(I11
I13
tp717
a(I11
I14
tp718
a(I11
I15
tp719
a(I11
I16
tp720
a(I12
I0
tp721
a(I12
I1
tp722
a(I12
I2
tp723
a(I12
I3
tp724
a(I12
I4
tp725
a(I12
I5
tp726
a(I12
I6
tp727
a(I12
I7
tp728
a(I12
I8
tp729
a(I12
I9
tp730
a(I12
I10
tp731
a(I12
I11
tp732
a(I12
I12
tp733
a(I12
I13
tp734
a(I12
I14
tp735
a(I12
I15
tp736
a(I12
I16
tp737
a(I13
I0
tp738
a(I13
I1
tp739
a(I13
I2
tp740
a(I13
I3
tp741
a(I13
I4
tp742
a(I13
I5
tp743
a(I13
I6
tp744
a(I13
I7
tp745
a(I13
I8
tp746
a(I13
I9
tp747
a(I13
I10
tp748
a(I13
I11
tp749
a(I13
I12
tp750
a(I13
I13
tp751
a(I13
I14
tp752
a(I13
I15
tp753
a(I13
I16
tp754
a(I14
I0
tp755
a(I14
I1
tp756
a(I14
I2
tp757
a(I14
I3
tp758
a(I14
I4
tp759
a(I14
I5
tp760
a(I14
I6
tp761
a(I14
I7
tp762
a(I14
I8
tp763
a(I14
I9
tp764
a(I14
I10
tp765
a(I14
I11
tp766
a(I14
I12
tp767
a(I14
I13
tp768
a(I14
I14
tp769
a(I14
I15
tp770
a(I14
I16
tp771
a(I15
I1
tp772
a(I15
I2
tp773
a(I15
I3
tp774
a(I15
I4
tp775
a(I15
I5
tp776
a(I15
I6
tp777
a(I15
I7
tp778
a(I15
I8
tp779
a(I15
I9
tp780
a(I15
I10
tp781
a(I15
I11
tp782
a(I15
I12
tp783
a(I15
I13
tp784
a(I15
I14
tp785
a(I15
I15
tp786
a(I16
I2
tp787
a(I16
I3
tp788
a(I16
I4
tp789
a(I16
I5
tp790
a(I16
I6
tp791
a(I16
I7
tp792
a(I16
I8
tp793
a(I16
I9
tp794
a(I16
I10
tp795
a(I16
I11
tp796
a(I16
I12
tp797
a(I16
I13
tp798
a(I16
I14
tp799
a(I17
I3
tp800
a(I17
I4
tp801
a(I17
I5
tp802
a(I17
I6
tp803
a(I17
I7
tp804
a(I17
I8
tp805
a(I17
I9
tp806
a(I17
I10
tp807
a(I17
I11
tp808
a(I17
I12
tp809
a(I17
I13
tp810
a(I18
I4
tp811
a(I18
I5
tp812
a(I18
I6
tp813
a(I18
I7
tp814
a(I18
I8
tp815
a(I18
I9
tp816
a(I18
I10
tp817
a(I18
I11
tp818
a(I18
I12
tp819
a(I19
I8
tp820
asg27
g270
sg29
I300
sg30
g271
sg32
g272
sbs(I9
I0
tp821
(ilibs
_Pellet
p822
(dp823
g9
I10
sg26
I0
sg7
Nsg8
I100
sg11
(lp824
(I6
I0
tp825
a(I7
I0
tp826
a(I7
I1
tp827
a(I7
I2
tp828
a(I8
I0
tp829
a(I8
I1
tp830
a(I8
I2
tp831
a(I9
I0
tp832
a(I9
I1
tp833
a(I9
I2
tp834
a(I9
I3
tp835
a(I10
I0
tp836
a(I10
I1
tp837
a(I10
I2
tp838
a(I11
I0
tp839
a(I11
I1
tp840
a(I11
I2
tp841
a(I12
I0
tp842
asg32
g305
sg6
I15
sg10
I60
sg306
(lp843
g308
asg4
I0
sg29
I100
sg30
g309
sg27
g310
sbs(I6
I7
tp844
(ilibs
_3
p845
(dp846
g4
I0
sg9
I20
sg26
I30
sg7
Nsg8
I300
sg6
I100
sg10
I180
sg11
(lp847
(I0
I1
tp848
a(I0
I2
tp849
a(I0
I3
tp850
a(I0
I4
tp851
a(I0
I5
tp852
a(I0
I6
tp853
a(I0
I7
tp854
a(I0
I8
tp855
a(I0
I9
tp856
a(I0
I10
tp857
a(I0
I11
tp858
a(I0
I12
tp859
a(I0
I13
tp860
a(I1
I0
tp861
a(I1
I1
tp862
a(I1
I2
tp863
a(I1
I3
tp864
a(I1
I4
tp865
a(I1
I5
tp866
a(I1
I6
tp867
a(I1
I7
tp868
a(I1
I8
tp869
a(I1
I9
tp870
a(I1
I10
tp871
a(I1
I11
tp872
a(I1
I12
tp873
a(I1
I13
tp874
a(I1
I14
tp875
a(I2
I0
tp876
a(I2
I1
tp877
a(I2
I2
tp878
a(I2
I3
tp879
a(I2
I4
tp880
a(I2
I5
tp881
a(I2
I6
tp882
a(I2
I7
tp883
a(I2
I8
tp884
a(I2
I9
tp885
a(I2
I10
tp886
a(I2
I11
tp887
a(I2
I12
tp888
a(I2
I13
tp889
a(I2
I14
tp890
a(I2
I15
tp891
a(I3
I0
tp892
a(I3
I1
tp893
a(I3
I2
tp894
a(I3
I3
tp895
a(I3
I4
tp896
a(I3
I5
tp897
a(I3
I6
tp898
a(I3
I7
tp899
a(I3
I8
tp900
a(I3
I9
tp901
a(I3
I10
tp902
a(I3
I11
tp903
a(I3
I12
tp904
a(I3
I13
tp905
a(I3
I14
tp906
a(I3
I15
tp907
a(I4
I0
tp908
a(I4
I1
tp909
a(I4
I2
tp910
a(I4
I3
tp911
a(I4
I4
tp912
a(I4
I5
tp913
a(I4
I6
tp914
a(I4
I7
tp915
a(I4
I8
tp916
a(I4
I9
tp917
a(I4
I10
tp918
a(I4
I11
tp919
a(I4
I12
tp920
a(I4
I13
tp921
a(I4
I14
tp922
a(I4
I15
tp923
a(I5
I0
tp924
a(I5
I1
tp925
a(I5
I2
tp926
a(I5
I3
tp927
a(I5
I4
tp928
a(I5
I5
tp929
a(I5
I6
tp930
a(I5
I7
tp931
a(I5
I8
tp932
a(I5
I9
tp933
a(I5
I10
tp934
a(I5
I11
tp935
a(I5
I12
tp936
a(I5
I13
tp937
a(I5
I14
tp938
a(I5
I15
tp939
a(I6
I0
tp940
a(I6
I1
tp941
a(I6
I2
tp942
a(I6
I3
tp943
a(I6
I4
tp944
a(I6
I5
tp945
a(I6
I6
tp946
a(I6
I7
tp947
a(I6
I8
tp948
a(I6
I9
tp949
a(I6
I10
tp950
a(I6
I11
tp951
a(I6
I12
tp952
a(I6
I13
tp953
a(I6
I14
tp954
a(I6
I15
tp955
a(I6
I16
tp956
a(I7
I0
tp957
a(I7
I1
tp958
a(I7
I2
tp959
a(I7
I3
tp960
a(I7
I4
tp961
a(I7
I5
tp962
a(I7
I6
tp963
a(I7
I7
tp964
a(I7
I8
tp965
a(I7
I9
tp966
a(I7
I10
tp967
a(I7
I11
tp968
a(I7
I12
tp969
a(I7
I13
tp970
a(I7
I14
tp971
a(I7
I15
tp972
a(I8
I0
tp973
a(I8
I1
tp974
a(I8
I2
tp975
a(I8
I3
tp976
a(I8
I4
tp977
a(I8
I5
tp978
a(I8
I6
tp979
a(I8
I7
tp980
a(I8
I8
tp981
a(I8
I9
tp982
a(I8
I10
tp983
a(I8
I11
tp984
a(I8
I12
tp985
a(I8
I13
tp986
a(I8
I14
tp987
a(I8
I15
tp988
a(I9
I0
tp989
a(I9
I1
tp990
a(I9
I2
tp991
a(I9
I3
tp992
a(I9
I4
tp993
a(I9
I5
tp994
a(I9
I6
tp995
a(I9
I7
tp996
a(I9
I8
tp997
a(I9
I9
tp998
a(I9
I10
tp999
a(I9
I11
tp1000
a(I9
I12
tp1001
a(I9
I13
tp1002
a(I9
I14
tp1003
a(I9
I15
tp1004
a(I10
I0
tp1005
a(I10
I1
tp1006
a(I10
I2
tp1007
a(I10
I3
tp1008
a(I10
I4
tp1009
a(I10
I5
tp1010
a(I10
I6
tp1011
a(I10
I7
tp1012
a(I10
I8
tp1013
a(I10
I9
tp1014
a(I10
I10
tp1015
a(I10
I11
tp1016
a(I10
I12
tp1017
a(I10
I13
tp1018
a(I10
I14
tp1019
a(I10
I15
tp1020
a(I11
I0
tp1021
a(I11
I1
tp1022
a(I11
I2
tp1023
a(I11
I3
tp1024
a(I11
I4
tp1025
a(I11
I5
tp1026
a(I11
I6
tp1027
a(I11
I7
tp1028
a(I11
I8
tp1029
a(I11
I9
tp1030
a(I11
I10
tp1031
a(I11
I11
tp1032
a(I11
I12
tp1033
a(I11
I13
tp1034
a(I11
I14
tp1035
a(I12
I1
tp1036
a(I12
I2
tp1037
a(I12
I3
tp1038
a(I12
I4
tp1039
a(I12
I5
tp1040
a(I12
I6
tp1041
a(I12
I7
tp1042
a(I12
I8
tp1043
a(I12
I9
tp1044
a(I12
I10
tp1045
a(I12
I11
tp1046
a(I12
I12
tp1047
a(I12
I13
tp1048
a(I13
I2
tp1049
a(I13
I3
tp1050
a(I13
I4
tp1051
a(I13
I5
tp1052
a(I13
I6
tp1053
a(I13
I7
tp1054
a(I13
I8
tp1055
a(I13
I9
tp1056
a(I13
I10
tp1057
a(I13
I11
tp1058
a(I13
I12
tp1059
a(I14
I3
tp1060
a(I14
I4
tp1061
a(I14
I5
tp1062
a(I14
I6
tp1063
a(I14
I7
tp1064
a(I14
I8
tp1065
a(I14
I9
tp1066
a(I14
I10
tp1067
a(I14
I11
tp1068
a(I15
I7
tp1069
asg27
g270
sg29
I300
sg30
g271
sg32
g272
sbs(I11
I5
tp1070
(ilibs
_Pellet
p1071
(dp1072
g9
I10
sg26
I0
sg7
Nsg8
I100
sg11
(lp1073
(I8
I5
tp1074
a(I9
I3
tp1075
a(I9
I4
tp1076
a(I9
I5
tp1077
a(I9
I6
tp1078
a(I9
I7
tp1079
a(I10
I3
tp1080
a(I10
I4
tp1081
a(I10
I5
tp1082
a(I10
I6
tp1083
a(I10
I7
tp1084
a(I11
I2
tp1085
a(I11
I3
tp1086
a(I11
I4
tp1087
a(I11
I5
tp1088
a(I11
I6
tp1089
a(I11
I7
tp1090
a(I11
I8
tp1091
a(I12
I3
tp1092
a(I12
I4
tp1093
a(I12
I5
tp1094
a(I12
I6
tp1095
a(I12
I7
tp1096
a(I13
I3
tp1097
a(I13
I4
tp1098
a(I13
I5
tp1099
a(I13
I6
tp1100
a(I13
I7
tp1101
a(I14
I5
tp1102
asg32
g305
sg6
I15
sg10
I60
sg306
(lp1103
g308
asg4
I0
sg29
I100
sg30
g309
sg27
g310
sbs(I7
I6
tp1104
(ilibs
_Pellet
p1105
(dp1106
g9
I10
sg26
I0
sg7
Nsg8
I100
sg11
(lp1107
(I4
I6
tp1108
a(I5
I4
tp1109
a(I5
I5
tp1110
a(I5
I6
tp1111
a(I5
I7
tp1112
a(I5
I8
tp1113
a(I6
I4
tp1114
a(I6
I5
tp1115
a(I6
I6
tp1116
a(I6
I7
tp1117
a(I6
I8
tp1118
a(I7
I3
tp1119
a(I7
I4
tp1120
a(I7
I5
tp1121
a(I7
I6
tp1122
a(I7
I7
tp1123
a(I7
I8
tp1124
a(I7
I9
tp1125
a(I8
I4
tp1126
a(I8
I5
tp1127
a(I8
I6
tp1128
a(I8
I7
tp1129
a(I8
I8
tp1130
a(I9
I4
tp1131
a(I9
I5
tp1132
a(I9
I6
tp1133
a(I9
I7
tp1134
a(I9
I8
tp1135
a(I10
I6
tp1136
asg32
g305
sg6
I15
sg10
I60
sg306
(lp1137
g308
asg4
I0
sg29
I100
sg30
g309
sg27
g310
sbs(I6
I10
tp1138
(ilibs
_3
p1139
(dp1140
g4
I0
sg9
I20
sg26
I30
sg7
Nsg8
I300
sg6
I100
sg10
I180
sg11
(lp1141
(I0
I4
tp1142
a(I0
I5
tp1143
a(I0
I6
tp1144
a(I0
I7
tp1145
a(I0
I8
tp1146
a(I0
I9
tp1147
a(I0
I10
tp1148
a(I0
I11
tp1149
a(I0
I12
tp1150
a(I0
I13
tp1151
a(I0
I14
tp1152
a(I0
I15
tp1153
a(I0
I16
tp1154
a(I1
I3
tp1155
a(I1
I4
tp1156
a(I1
I5
tp1157
a(I1
I6
tp1158
a(I1
I7
tp1159
a(I1
I8
tp1160
a(I1
I9
tp1161
a(I1
I10
tp1162
a(I1
I11
tp1163
a(I1
I12
tp1164
a(I1
I13
tp1165
a(I1
I14
tp1166
a(I1
I15
tp1167
a(I1
I16
tp1168
a(I1
I17
tp1169
a(I2
I2
tp1170
a(I2
I3
tp1171
a(I2
I4
tp1172
a(I2
I5
tp1173
a(I2
I6
tp1174
a(I2
I7
tp1175
a(I2
I8
tp1176
a(I2
I9
tp1177
a(I2
I10
tp1178
a(I2
I11
tp1179
a(I2
I12
tp1180
a(I2
I13
tp1181
a(I2
I14
tp1182
a(I2
I15
tp1183
a(I2
I16
tp1184
a(I2
I17
tp1185
a(I2
I18
tp1186
a(I3
I2
tp1187
a(I3
I3
tp1188
a(I3
I4
tp1189
a(I3
I5
tp1190
a(I3
I6
tp1191
a(I3
I7
tp1192
a(I3
I8
tp1193
a(I3
I9
tp1194
a(I3
I10
tp1195
a(I3
I11
tp1196
a(I3
I12
tp1197
a(I3
I13
tp1198
a(I3
I14
tp1199
a(I3
I15
tp1200
a(I3
I16
tp1201
a(I3
I17
tp1202
a(I3
I18
tp1203
a(I4
I2
tp1204
a(I4
I3
tp1205
a(I4
I4
tp1206
a(I4
I5
tp1207
a(I4
I6
tp1208
a(I4
I7
tp1209
a(I4
I8
tp1210
a(I4
I9
tp1211
a(I4
I10
tp1212
a(I4
I11
tp1213
a(I4
I12
tp1214
a(I4
I13
tp1215
a(I4
I14
tp1216
a(I4
I15
tp1217
a(I4
I16
tp1218
a(I4
I17
tp1219
a(I4
I18
tp1220
a(I5
I2
tp1221
a(I5
I3
tp1222
a(I5
I4
tp1223
a(I5
I5
tp1224
a(I5
I6
tp1225
a(I5
I7
tp1226
a(I5
I8
tp1227
a(I5
I9
tp1228
a(I5
I10
tp1229
a(I5
I11
tp1230
a(I5
I12
tp1231
a(I5
I13
tp1232
a(I5
I14
tp1233
a(I5
I15
tp1234
a(I5
I16
tp1235
a(I5
I17
tp1236
a(I5
I18
tp1237
a(I6
I1
tp1238
a(I6
I2
tp1239
a(I6
I3
tp1240
a(I6
I4
tp1241
a(I6
I5
tp1242
a(I6
I6
tp1243
a(I6
I7
tp1244
a(I6
I8
tp1245
a(I6
I9
tp1246
a(I6
I10
tp1247
a(I6
I11
tp1248
a(I6
I12
tp1249
a(I6
I13
tp1250
a(I6
I14
tp1251
a(I6
I15
tp1252
a(I6
I16
tp1253
a(I6
I17
tp1254
a(I6
I18
tp1255
a(I6
I19
tp1256
a(I7
I2
tp1257
a(I7
I3
tp1258
a(I7
I4
tp1259
a(I7
I5
tp1260
a(I7
I6
tp1261
a(I7
I7
tp1262
a(I7
I8
tp1263
a(I7
I9
tp1264
a(I7
I10
tp1265
a(I7
I11
tp1266
a(I7
I12
tp1267
a(I7
I13
tp1268
a(I7
I14
tp1269
a(I7
I15
tp1270
a(I7
I16
tp1271
a(I7
I17
tp1272
a(I7
I18
tp1273
a(I8
I2
tp1274
a(I8
I3
tp1275
a(I8
I4
tp1276
a(I8
I5
tp1277
a(I8
I6
tp1278
a(I8
I7
tp1279
a(I8
I8
tp1280
a(I8
I9
tp1281
a(I8
I10
tp1282
a(I8
I11
tp1283
a(I8
I12
tp1284
a(I8
I13
tp1285
a(I8
I14
tp1286
a(I8
I15
tp1287
a(I8
I16
tp1288
a(I8
I17
tp1289
a(I8
I18
tp1290
a(I9
I2
tp1291
a(I9
I3
tp1292
a(I9
I4
tp1293
a(I9
I5
tp1294
a(I9
I6
tp1295
a(I9
I7
tp1296
a(I9
I8
tp1297
a(I9
I9
tp1298
a(I9
I10
tp1299
a(I9
I11
tp1300
a(I9
I12
tp1301
a(I9
I13
tp1302
a(I9
I14
tp1303
a(I9
I15
tp1304
a(I9
I16
tp1305
a(I9
I17
tp1306
a(I9
I18
tp1307
a(I10
I2
tp1308
a(I10
I3
tp1309
a(I10
I4
tp1310
a(I10
I5
tp1311
a(I10
I6
tp1312
a(I10
I7
tp1313
a(I10
I8
tp1314
a(I10
I9
tp1315
a(I10
I10
tp1316
a(I10
I11
tp1317
a(I10
I12
tp1318
a(I10
I13
tp1319
a(I10
I14
tp1320
a(I10
I15
tp1321
a(I10
I16
tp1322
a(I10
I17
tp1323
a(I10
I18
tp1324
a(I11
I3
tp1325
a(I11
I4
tp1326
a(I11
I5
tp1327
a(I11
I6
tp1328
a(I11
I7
tp1329
a(I11
I8
tp1330
a(I11
I9
tp1331
a(I11
I10
tp1332
a(I11
I11
tp1333
a(I11
I12
tp1334
a(I11
I13
tp1335
a(I11
I14
tp1336
a(I11
I15
tp1337
a(I11
I16
tp1338
a(I11
I17
tp1339
a(I12
I4
tp1340
a(I12
I5
tp1341
a(I12
I6
tp1342
a(I12
I7
tp1343
a(I12
I8
tp1344
a(I12
I9
tp1345
a(I12
I10
tp1346
a(I12
I11
tp1347
a(I12
I12
tp1348
a(I12
I13
tp1349
a(I12
I14
tp1350
a(I12
I15
tp1351
a(I12
I16
tp1352
a(I13
I5
tp1353
a(I13
I6
tp1354
a(I13
I7
tp1355
a(I13
I8
tp1356
a(I13
I9
tp1357
a(I13
I10
tp1358
a(I13
I11
tp1359
a(I13
I12
tp1360
a(I13
I13
tp1361
a(I13
I14
tp1362
a(I13
I15
tp1363
a(I14
I6
tp1364
a(I14
I7
tp1365
a(I14
I8
tp1366
a(I14
I9
tp1367
a(I14
I10
tp1368
a(I14
I11
tp1369
a(I14
I12
tp1370
a(I14
I13
tp1371
a(I14
I14
tp1372
a(I15
I10
tp1373
asg27
g270
sg29
I300
sg30
g271
sg32
g272
sbs(I10
I18
tp1374
(ilibs
_Pellet
p1375
(dp1376
g9
I10
sg26
I0
sg7
Nsg8
I100
sg11
(lp1377
(I7
I18
tp1378
a(I8
I16
tp1379
a(I8
I17
tp1380
a(I8
I18
tp1381
a(I8
I19
tp1382
a(I9
I16
tp1383
a(I9
I17
tp1384
a(I9
I18
tp1385
a(I9
I19
tp1386
a(I10
I15
tp1387
a(I10
I16
tp1388
a(I10
I17
tp1389
a(I10
I18
tp1390
a(I10
I19
tp1391
a(I11
I16
tp1392
a(I11
I17
tp1393
a(I11
I18
tp1394
a(I11
I19
tp1395
a(I12
I16
tp1396
a(I12
I17
tp1397
a(I12
I18
tp1398
a(I12
I19
tp1399
a(I13
I18
tp1400
asg32
g305
sg6
I15
sg10
I60
sg306
(lp1401
g308
asg4
I0
sg29
I100
sg30
g309
sg27
g310
sbs(I0
I17
tp1402
(ilibs
_Pellet
p1403
(dp1404
g9
I10
sg26
I0
sg7
Nsg8
I100
sg11
(lp1405
(I0
I14
tp1406
a(I0
I15
tp1407
a(I0
I16
tp1408
a(I0
I17
tp1409
a(I0
I18
tp1410
a(I0
I19
tp1411
a(I1
I15
tp1412
a(I1
I16
tp1413
a(I1
I17
tp1414
a(I1
I18
tp1415
a(I1
I19
tp1416
a(I2
I15
tp1417
a(I2
I16
tp1418
a(I2
I17
tp1419
a(I2
I18
tp1420
a(I2
I19
tp1421
a(I3
I17
tp1422
asg32
g305
sg6
I15
sg10
I60
sg306
(lp1423
g308
asg4
I0
sg29
I100
sg30
g309
sg27
g310
sbs(I13
I7
tp1424
(ilibs
_Pellet
p1425
(dp1426
g9
I10
sg26
I0
sg7
Nsg8
I100
sg11
(lp1427
(I10
I7
tp1428
a(I11
I5
tp1429
a(I11
I6
tp1430
a(I11
I7
tp1431
a(I11
I8
tp1432
a(I11
I9
tp1433
a(I12
I5
tp1434
a(I12
I6
tp1435
a(I12
I7
tp1436
a(I12
I8
tp1437
a(I12
I9
tp1438
a(I13
I4
tp1439
a(I13
I5
tp1440
a(I13
I6
tp1441
a(I13
I7
tp1442
a(I13
I8
tp1443
a(I13
I9
tp1444
a(I13
I10
tp1445
a(I14
I5
tp1446
a(I14
I6
tp1447
a(I14
I7
tp1448
a(I14
I8
tp1449
a(I14
I9
tp1450
a(I15
I5
tp1451
a(I15
I6
tp1452
a(I15
I7
tp1453
a(I15
I8
tp1454
a(I15
I9
tp1455
a(I16
I7
tp1456
asg32
g305
sg6
I15
sg10
I60
sg306
(lp1457
g308
asg4
I0
sg29
I100
sg30
g309
sg27
g310
sbs(I12
I17
tp1458
(ilibs
_Pellet
p1459
(dp1460
g9
I10
sg26
I0
sg7
Nsg8
I100
sg11
(lp1461
(I9
I17
tp1462
a(I10
I15
tp1463
a(I10
I16
tp1464
a(I10
I17
tp1465
a(I10
I18
tp1466
a(I10
I19
tp1467
a(I11
I15
tp1468
a(I11
I16
tp1469
a(I11
I17
tp1470
a(I11
I18
tp1471
a(I11
I19
tp1472
a(I12
I14
tp1473
a(I12
I15
tp1474
a(I12
I16
tp1475
a(I12
I17
tp1476
a(I12
I18
tp1477
a(I12
I19
tp1478
a(I13
I15
tp1479
a(I13
I16
tp1480
a(I13
I17
tp1481
a(I13
I18
tp1482
a(I13
I19
tp1483
a(I14
I15
tp1484
a(I14
I16
tp1485
a(I14
I17
tp1486
a(I14
I18
tp1487
a(I14
I19
tp1488
a(I15
I17
tp1489
asg32
g305
sg6
I15
sg10
I60
sg306
(lp1490
g308
asg4
I0
sg29
I100
sg30
g309
sg27
g310
sbs(I18
I9
tp1491
(ilibs
_Pellet
p1492
(dp1493
g9
I10
sg26
I0
sg7
Nsg8
I100
sg11
(lp1494
(I15
I9
tp1495
a(I16
I7
tp1496
a(I16
I8
tp1497
a(I16
I9
tp1498
a(I16
I10
tp1499
a(I16
I11
tp1500
a(I17
I7
tp1501
a(I17
I8
tp1502
a(I17
I9
tp1503
a(I17
I10
tp1504
a(I17
I11
tp1505
a(I18
I6
tp1506
a(I18
I7
tp1507
a(I18
I8
tp1508
a(I18
I9
tp1509
a(I18
I10
tp1510
a(I18
I11
tp1511
a(I18
I12
tp1512
a(I19
I7
tp1513
a(I19
I8
tp1514
a(I19
I9
tp1515
a(I19
I10
tp1516
a(I19
I11
tp1517
asg32
g305
sg6
I15
sg10
I60
sg306
(lp1518
g308
asg4
I0
sg29
I100
sg30
g309
sg27
g310
sbs(I0
I4
tp1519
(ilibs
_Pellet
p1520
(dp1521
g9
I10
sg26
I0
sg7
Nsg8
I100
sg11
(lp1522
(I0
I1
tp1523
a(I0
I2
tp1524
a(I0
I3
tp1525
a(I0
I4
tp1526
a(I0
I5
tp1527
a(I0
I6
tp1528
a(I0
I7
tp1529
a(I1
I2
tp1530
a(I1
I3
tp1531
a(I1
I4
tp1532
a(I1
I5
tp1533
a(I1
I6
tp1534
a(I2
I2
tp1535
a(I2
I3
tp1536
a(I2
I4
tp1537
a(I2
I5
tp1538
a(I2
I6
tp1539
a(I3
I4
tp1540
asg32
g305
sg6
I15
sg10
I60
sg306
(lp1541
g308
asg4
I0
sg29
I100
sg30
g309
sg27
g310
sbs(I15
I4
tp1542
(ilibs
_Pellet
p1543
(dp1544
g9
I10
sg26
I0
sg7
Nsg8
I100
sg11
(lp1545
(I12
I4
tp1546
a(I13
I2
tp1547
a(I13
I3
tp1548
a(I13
I4
tp1549
a(I13
I5
tp1550
a(I13
I6
tp1551
a(I14
I2
tp1552
a(I14
I3
tp1553
a(I14
I4
tp1554
a(I14
I5
tp1555
a(I14
I6
tp1556
a(I15
I1
tp1557
a(I15
I2
tp1558
a(I15
I3
tp1559
a(I15
I4
tp1560
a(I15
I5
tp1561
a(I15
I6
tp1562
a(I15
I7
tp1563
a(I16
I2
tp1564
a(I16
I3
tp1565
a(I16
I4
tp1566
a(I16
I5
tp1567
a(I16
I6
tp1568
a(I17
I2
tp1569
a(I17
I3
tp1570
a(I17
I4
tp1571
a(I17
I5
tp1572
a(I17
I6
tp1573
a(I18
I4
tp1574
asg32
g305
sg6
I15
sg10
I60
sg306
(lp1575
g308
asg4
I0
sg29
I100
sg30
g309
sg27
g310
sbs(I8
I15
tp1576
(ilibs
_Aqua
p1577
(dp1578
g9
I5
sg26
I30
sg7
Nsg8
I70
sg6
I30
sg10
I120
sg11
(lp1579
(I2
I15
tp1580
a(I3
I12
tp1581
a(I3
I13
tp1582
a(I3
I14
tp1583
a(I3
I15
tp1584
a(I3
I16
tp1585
a(I3
I17
tp1586
a(I3
I18
tp1587
a(I4
I11
tp1588
a(I4
I12
tp1589
a(I4
I13
tp1590
a(I4
I14
tp1591
a(I4
I15
tp1592
a(I4
I16
tp1593
a(I4
I17
tp1594
a(I4
I18
tp1595
a(I4
I19
tp1596
a(I5
I10
tp1597
a(I5
I11
tp1598
a(I5
I12
tp1599
a(I5
I13
tp1600
a(I5
I14
tp1601
a(I5
I15
tp1602
a(I5
I16
tp1603
a(I5
I17
tp1604
a(I5
I18
tp1605
a(I5
I19
tp1606
a(I6
I10
tp1607
a(I6
I11
tp1608
a(I6
I12
tp1609
a(I6
I13
tp1610
a(I6
I14
tp1611
a(I6
I15
tp1612
a(I6
I16
tp1613
a(I6
I17
tp1614
a(I6
I18
tp1615
a(I6
I19
tp1616
a(I7
I10
tp1617
a(I7
I11
tp1618
a(I7
I12
tp1619
a(I7
I13
tp1620
a(I7
I14
tp1621
a(I7
I15
tp1622
a(I7
I16
tp1623
a(I7
I17
tp1624
a(I7
I18
tp1625
a(I7
I19
tp1626
a(I8
I9
tp1627
a(I8
I10
tp1628
a(I8
I11
tp1629
a(I8
I12
tp1630
a(I8
I13
tp1631
a(I8
I14
tp1632
a(I8
I15
tp1633
a(I8
I16
tp1634
a(I8
I17
tp1635
a(I8
I18
tp1636
a(I8
I19
tp1637
a(I9
I10
tp1638
a(I9
I11
tp1639
a(I9
I12
tp1640
a(I9
I13
tp1641
a(I9
I14
tp1642
a(I9
I15
tp1643
a(I9
I16
tp1644
a(I9
I17
tp1645
a(I9
I18
tp1646
a(I9
I19
tp1647
a(I10
I10
tp1648
a(I10
I11
tp1649
a(I10
I12
tp1650
a(I10
I13
tp1651
a(I10
I14
tp1652
a(I10
I15
tp1653
a(I10
I16
tp1654
a(I10
I17
tp1655
a(I10
I18
tp1656
a(I10
I19
tp1657
a(I11
I10
tp1658
a(I11
I11
tp1659
a(I11
I12
tp1660
a(I11
I13
tp1661
a(I11
I14
tp1662
a(I11
I15
tp1663
a(I11
I16
tp1664
a(I11
I17
tp1665
a(I11
I18
tp1666
a(I11
I19
tp1667
a(I12
I11
tp1668
a(I12
I12
tp1669
a(I12
I13
tp1670
a(I12
I14
tp1671
a(I12
I15
tp1672
a(I12
I16
tp1673
a(I12
I17
tp1674
a(I12
I18
tp1675
a(I12
I19
tp1676
a(I13
I12
tp1677
a(I13
I13
tp1678
a(I13
I14
tp1679
a(I13
I15
tp1680
a(I13
I16
tp1681
a(I13
I17
tp1682
a(I13
I18
tp1683
a(I14
I15
tp1684
asg27
S'weak, fast shooter, moderate range'
p1685
sg4
I0
sg29
I70
sg30
S'@'
p1686
sg32
S'Aqua Tower'
p1687
sbs(I4
I10
tp1688
(ilibs
_Pellet
p1689
(dp1690
g9
I10
sg26
I0
sg7
Nsg8
I100
sg11
(lp1691
(I1
I10
tp1692
a(I2
I8
tp1693
a(I2
I9
tp1694
a(I2
I10
tp1695
a(I2
I11
tp1696
a(I2
I12
tp1697
a(I3
I8
tp1698
a(I3
I9
tp1699
a(I3
I10
tp1700
a(I3
I11
tp1701
a(I3
I12
tp1702
a(I4
I7
tp1703
a(I4
I8
tp1704
a(I4
I9
tp1705
a(I4
I10
tp1706
a(I4
I11
tp1707
a(I4
I12
tp1708
a(I4
I13
tp1709
a(I5
I8
tp1710
a(I5
I9
tp1711
a(I5
I10
tp1712
a(I5
I11
tp1713
a(I5
I12
tp1714
a(I6
I8
tp1715
a(I6
I9
tp1716
a(I6
I10
tp1717
a(I6
I11
tp1718
a(I6
I12
tp1719
a(I7
I10
tp1720
asg32
g305
sg6
I15
sg10
I60
sg306
(lp1721
g308
asg4
I0
sg29
I100
sg30
g309
sg27
g310
sbs(I3
I2
tp1722
(ilibs
_Pellet
p1723
(dp1724
g9
I10
sg26
I0
sg7
Nsg8
I100
sg11
(lp1725
(I0
I2
tp1726
a(I1
I0
tp1727
a(I1
I1
tp1728
a(I1
I2
tp1729
a(I1
I3
tp1730
a(I1
I4
tp1731
a(I2
I0
tp1732
a(I2
I1
tp1733
a(I2
I2
tp1734
a(I2
I3
tp1735
a(I2
I4
tp1736
a(I3
I0
tp1737
a(I3
I1
tp1738
a(I3
I2
tp1739
a(I3
I3
tp1740
a(I3
I4
tp1741
a(I3
I5
tp1742
a(I4
I0
tp1743
a(I4
I1
tp1744
a(I4
I2
tp1745
a(I4
I3
tp1746
a(I4
I4
tp1747
a(I5
I0
tp1748
a(I5
I1
tp1749
a(I5
I2
tp1750
a(I5
I3
tp1751
a(I5
I4
tp1752
a(I6
I2
tp1753
asg32
g305
sg6
I15
sg10
I60
sg306
(lp1754
g308
asg4
I0
sg29
I100
sg30
g309
sg27
g310
sbs(I2
I6
tp1755
(ilibs
_Pellet
p1756
(dp1757
g9
I10
sg26
I0
sg7
Nsg8
I100
sg11
(lp1758
(I0
I4
tp1759
a(I0
I5
tp1760
a(I0
I6
tp1761
a(I0
I7
tp1762
a(I0
I8
tp1763
a(I1
I4
tp1764
a(I1
I5
tp1765
a(I1
I6
tp1766
a(I1
I7
tp1767
a(I1
I8
tp1768
a(I2
I3
tp1769
a(I2
I4
tp1770
a(I2
I5
tp1771
a(I2
I6
tp1772
a(I2
I7
tp1773
a(I2
I8
tp1774
a(I2
I9
tp1775
a(I3
I4
tp1776
a(I3
I5
tp1777
a(I3
I6
tp1778
a(I3
I7
tp1779
a(I3
I8
tp1780
a(I4
I4
tp1781
a(I4
I5
tp1782
a(I4
I6
tp1783
a(I4
I7
tp1784
a(I4
I8
tp1785
a(I5
I6
tp1786
asg32
g305
sg6
I15
sg10
I60
sg306
(lp1787
g308
asg4
I0
sg29
I100
sg30
g309
sg27
g310
sbs(I9
I3
tp1788
(ilibs
_Pellet
p1789
(dp1790
g9
I10
sg26
I0
sg7
Nsg8
I100
sg11
(lp1791
(I6
I3
tp1792
a(I7
I1
tp1793
a(I7
I2
tp1794
a(I7
I3
tp1795
a(I7
I4
tp1796
a(I7
I5
tp1797
a(I8
I1
tp1798
a(I8
I2
tp1799
a(I8
I3
tp1800
a(I8
I4
tp1801
a(I8
I5
tp1802
a(I9
I0
tp1803
a(I9
I1
tp1804
a(I9
I2
tp1805
a(I9
I3
tp1806
a(I9
I4
tp1807
a(I9
I5
tp1808
a(I9
I6
tp1809
a(I10
I1
tp1810
a(I10
I2
tp1811
a(I10
I3
tp1812
a(I10
I4
tp1813
a(I10
I5
tp1814
a(I11
I1
tp1815
a(I11
I2
tp1816
a(I11
I3
tp1817
a(I11
I4
tp1818
a(I11
I5
tp1819
a(I12
I3
tp1820
asg32
g305
sg6
I15
sg10
I60
sg306
(lp1821
g308
asg4
I0
sg29
I100
sg30
g309
sg27
g310
sbs(I6
I0
tp1822
(ilibs
_Pellet
p1823
(dp1824
g9
I10
sg26
I0
sg7
Nsg8
I100
sg11
(lp1825
(I3
I0
tp1826
a(I4
I0
tp1827
a(I4
I1
tp1828
a(I4
I2
tp1829
a(I5
I0
tp1830
a(I5
I1
tp1831
a(I5
I2
tp1832
a(I6
I0
tp1833
a(I6
I1
tp1834
a(I6
I2
tp1835
a(I6
I3
tp1836
a(I7
I0
tp1837
a(I7
I1
tp1838
a(I7
I2
tp1839
a(I8
I0
tp1840
a(I8
I1
tp1841
a(I8
I2
tp1842
a(I9
I0
tp1843
asg32
g305
sg6
I15
sg10
I60
sg306
(lp1844
g308
asg4
I0
sg29
I100
sg30
g309
sg27
g310
sbs(I11
I0
tp1845
(ilibs
_Pellet
p1846
(dp1847
g9
I10
sg26
I0
sg7
Nsg8
I100
sg11
(lp1848
(I8
I0
tp1849
a(I9
I0
tp1850
a(I9
I1
tp1851
a(I9
I2
tp1852
a(I10
I0
tp1853
a(I10
I1
tp1854
a(I10
I2
tp1855
a(I11
I0
tp1856
a(I11
I1
tp1857
a(I11
I2
tp1858
a(I11
I3
tp1859
a(I12
I0
tp1860
a(I12
I1
tp1861
a(I12
I2
tp1862
a(I13
I0
tp1863
a(I13
I1
tp1864
a(I13
I2
tp1865
a(I14
I0
tp1866
asg32
g305
sg6
I15
sg10
I60
sg306
(lp1867
g308
asg4
I0
sg29
I100
sg30
g309
sg27
g310
sbs(I16
I0
tp1868
(ilibs
_Pellet
p1869
(dp1870
g9
I10
sg26
I0
sg7
Nsg8
I100
sg11
(lp1871
(I13
I0
tp1872
a(I14
I0
tp1873
a(I14
I1
tp1874
a(I14
I2
tp1875
a(I15
I0
tp1876
a(I15
I1
tp1877
a(I15
I2
tp1878
a(I16
I0
tp1879
a(I16
I1
tp1880
a(I16
I2
tp1881
a(I16
I3
tp1882
a(I17
I0
tp1883
a(I17
I1
tp1884
a(I17
I2
tp1885
a(I18
I0
tp1886
a(I18
I1
tp1887
a(I18
I2
tp1888
a(I19
I0
tp1889
asg32
g305
sg6
I15
sg10
I60
sg306
(lp1890
g308
asg4
I0
sg29
I100
sg30
g309
sg27
g310
sbs(I14
I15
tp1891
(ilibs
_Pellet
p1892
(dp1893
g9
I10
sg26
I0
sg7
Nsg8
I100
sg11
(lp1894
(I11
I15
tp1895
a(I12
I13
tp1896
a(I12
I14
tp1897
a(I12
I15
tp1898
a(I12
I16
tp1899
a(I12
I17
tp1900
a(I13
I13
tp1901
a(I13
I14
tp1902
a(I13
I15
tp1903
a(I13
I16
tp1904
a(I13
I17
tp1905
a(I14
I12
tp1906
a(I14
I13
tp1907
a(I14
I14
tp1908
a(I14
I15
tp1909
a(I14
I16
tp1910
a(I14
I17
tp1911
a(I14
I18
tp1912
a(I15
I13
tp1913
a(I15
I14
tp1914
a(I15
I15
tp1915
a(I15
I16
tp1916
a(I15
I17
tp1917
a(I16
I13
tp1918
a(I16
I14
tp1919
a(I16
I15
tp1920
a(I16
I16
tp1921
a(I16
I17
tp1922
a(I17
I15
tp1923
asg32
g305
sg6
I15
sg10
I60
sg306
(lp1924
g308
asg4
I0
sg29
I100
sg30
g309
sg27
g310
sbs(I12
I11
tp1925
(ilibs
_Pellet
p1926
(dp1927
g9
I10
sg26
I0
sg7
Nsg8
I100
sg11
(lp1928
(I9
I11
tp1929
a(I10
I9
tp1930
a(I10
I10
tp1931
a(I10
I11
tp1932
a(I10
I12
tp1933
a(I10
I13
tp1934
a(I11
I9
tp1935
a(I11
I10
tp1936
a(I11
I11
tp1937
a(I11
I12
tp1938
a(I11
I13
tp1939
a(I12
I8
tp1940
a(I12
I9
tp1941
a(I12
I10
tp1942
a(I12
I11
tp1943
a(I12
I12
tp1944
a(I12
I13
tp1945
a(I12
I14
tp1946
a(I13
I9
tp1947
a(I13
I10
tp1948
a(I13
I11
tp1949
a(I13
I12
tp1950
a(I13
I13
tp1951
a(I14
I9
tp1952
a(I14
I10
tp1953
a(I14
I11
tp1954
a(I14
I12
tp1955
a(I14
I13
tp1956
a(I15
I11
tp1957
asg32
g305
sg6
I15
sg10
I60
sg306
(lp1958
g308
asg4
I0
sg29
I100
sg30
g309
sg27
g310
sbs(I19
I13
tp1959
(ilibs
_Pellet
p1960
(dp1961
g9
I10
sg26
I0
sg7
Nsg8
I100
sg11
(lp1962
(I16
I13
tp1963
a(I17
I11
tp1964
a(I17
I12
tp1965
a(I17
I13
tp1966
a(I17
I14
tp1967
a(I17
I15
tp1968
a(I18
I11
tp1969
a(I18
I12
tp1970
a(I18
I13
tp1971
a(I18
I14
tp1972
a(I18
I15
tp1973
a(I19
I10
tp1974
a(I19
I11
tp1975
a(I19
I12
tp1976
a(I19
I13
tp1977
a(I19
I14
tp1978
a(I19
I15
tp1979
a(I19
I16
tp1980
asg32
g305
sg6
I15
sg10
I60
sg306
(lp1981
g308
asg4
I0
sg29
I100
sg30
g309
sg27
g310
sbs(I17
I13
tp1982
(ilibs
_Pellet
p1983
(dp1984
g9
I10
sg26
I0
sg7
Nsg8
I100
sg11
(lp1985
(I14
I13
tp1986
a(I15
I11
tp1987
a(I15
I12
tp1988
a(I15
I13
tp1989
a(I15
I14
tp1990
a(I15
I15
tp1991
a(I16
I11
tp1992
a(I16
I12
tp1993
a(I16
I13
tp1994
a(I16
I14
tp1995
a(I16
I15
tp1996
a(I17
I10
tp1997
a(I17
I11
tp1998
a(I17
I12
tp1999
a(I17
I13
tp2000
a(I17
I14
tp2001
a(I17
I15
tp2002
a(I17
I16
tp2003
a(I18
I11
tp2004
a(I18
I12
tp2005
a(I18
I13
tp2006
a(I18
I14
tp2007
a(I18
I15
tp2008
a(I19
I11
tp2009
a(I19
I12
tp2010
a(I19
I13
tp2011
a(I19
I14
tp2012
a(I19
I15
tp2013
asg32
g305
sg6
I15
sg10
I60
sg306
(lp2014
g308
asg4
I0
sg29
I100
sg30
g309
sg27
g310
sbs(I16
I19
tp2015
(ilibs
_Pellet
p2016
(dp2017
g9
I10
sg26
I0
sg7
Nsg8
I100
sg11
(lp2018
(I13
I19
tp2019
a(I14
I17
tp2020
a(I14
I18
tp2021
a(I14
I19
tp2022
a(I15
I17
tp2023
a(I15
I18
tp2024
a(I15
I19
tp2025
a(I16
I16
tp2026
a(I16
I17
tp2027
a(I16
I18
tp2028
a(I16
I19
tp2029
a(I17
I17
tp2030
a(I17
I18
tp2031
a(I17
I19
tp2032
a(I18
I17
tp2033
a(I18
I18
tp2034
a(I18
I19
tp2035
a(I19
I19
tp2036
asg32
g305
sg6
I15
sg10
I60
sg306
(lp2037
g308
asg4
I0
sg29
I100
sg30
g309
sg27
g310
sbs(I2
I17
tp2038
(ilibs
_Pellet
p2039
(dp2040
g9
I10
sg26
I0
sg7
Nsg8
I100
sg11
(lp2041
(I0
I15
tp2042
a(I0
I16
tp2043
a(I0
I17
tp2044
a(I0
I18
tp2045
a(I0
I19
tp2046
a(I1
I15
tp2047
a(I1
I16
tp2048
a(I1
I17
tp2049
a(I1
I18
tp2050
a(I1
I19
tp2051
a(I2
I14
tp2052
a(I2
I15
tp2053
a(I2
I16
tp2054
a(I2
I17
tp2055
a(I2
I18
tp2056
a(I2
I19
tp2057
a(I3
I15
tp2058
a(I3
I16
tp2059
a(I3
I17
tp2060
a(I3
I18
tp2061
a(I3
I19
tp2062
a(I4
I15
tp2063
a(I4
I16
tp2064
a(I4
I17
tp2065
a(I4
I18
tp2066
a(I4
I19
tp2067
a(I5
I17
tp2068
asg32
g305
sg6
I15
sg10
I60
sg306
(lp2069
g308
asg4
I0
sg29
I100
sg30
g309
sg27
g310
sbs(I18
I10
tp2070
(ilibs
_Pellet
p2071
(dp2072
g9
I10
sg26
I0
sg7
Nsg8
I100
sg11
(lp2073
(I15
I10
tp2074
a(I16
I8
tp2075
a(I16
I9
tp2076
a(I16
I10
tp2077
a(I16
I11
tp2078
a(I16
I12
tp2079
a(I17
I8
tp2080
a(I17
I9
tp2081
a(I17
I10
tp2082
a(I17
I11
tp2083
a(I17
I12
tp2084
a(I18
I7
tp2085
a(I18
I8
tp2086
a(I18
I9
tp2087
a(I18
I10
tp2088
a(I18
I11
tp2089
a(I18
I12
tp2090
a(I18
I13
tp2091
a(I19
I8
tp2092
a(I19
I9
tp2093
a(I19
I10
tp2094
a(I19
I11
tp2095
a(I19
I12
tp2096
asg32
g305
sg6
I15
sg10
I60
sg306
(lp2097
g308
asg4
I0
sg29
I100
sg30
g309
sg27
g310
sbs(I0
I1
tp2098
(ilibs
_Pellet
p2099
(dp2100
g9
I10
sg26
I0
sg7
Nsg8
I100
sg11
(lp2101
(I0
I0
tp2102
a(I0
I1
tp2103
a(I0
I2
tp2104
a(I0
I3
tp2105
a(I0
I4
tp2106
a(I1
I0
tp2107
a(I1
I1
tp2108
a(I1
I2
tp2109
a(I1
I3
tp2110
a(I2
I0
tp2111
a(I2
I1
tp2112
a(I2
I2
tp2113
a(I2
I3
tp2114
a(I3
I1
tp2115
asg32
g305
sg6
I15
sg10
I60
sg306
(lp2116
g308
asg4
I0
sg29
I100
sg30
g309
sg27
g310
sbs(I8
I12
tp2117
(ilibs
_Aqua
p2118
(dp2119
g9
I5
sg26
I30
sg7
Nsg8
I70
sg6
I30
sg10
I120
sg11
(lp2120
(I2
I12
tp2121
a(I3
I9
tp2122
a(I3
I10
tp2123
a(I3
I11
tp2124
a(I3
I12
tp2125
a(I3
I13
tp2126
a(I3
I14
tp2127
a(I3
I15
tp2128
a(I4
I8
tp2129
a(I4
I9
tp2130
a(I4
I10
tp2131
a(I4
I11
tp2132
a(I4
I12
tp2133
a(I4
I13
tp2134
a(I4
I14
tp2135
a(I4
I15
tp2136
a(I4
I16
tp2137
a(I5
I7
tp2138
a(I5
I8
tp2139
a(I5
I9
tp2140
a(I5
I10
tp2141
a(I5
I11
tp2142
a(I5
I12
tp2143
a(I5
I13
tp2144
a(I5
I14
tp2145
a(I5
I15
tp2146
a(I5
I16
tp2147
a(I5
I17
tp2148
a(I6
I7
tp2149
a(I6
I8
tp2150
a(I6
I9
tp2151
a(I6
I10
tp2152
a(I6
I11
tp2153
a(I6
I12
tp2154
a(I6
I13
tp2155
a(I6
I14
tp2156
a(I6
I15
tp2157
a(I6
I16
tp2158
a(I6
I17
tp2159
a(I7
I7
tp2160
a(I7
I8
tp2161
a(I7
I9
tp2162
a(I7
I10
tp2163
a(I7
I11
tp2164
a(I7
I12
tp2165
a(I7
I13
tp2166
a(I7
I14
tp2167
a(I7
I15
tp2168
a(I7
I16
tp2169
a(I7
I17
tp2170
a(I8
I6
tp2171
a(I8
I7
tp2172
a(I8
I8
tp2173
a(I8
I9
tp2174
a(I8
I10
tp2175
a(I8
I11
tp2176
a(I8
I12
tp2177
a(I8
I13
tp2178
a(I8
I14
tp2179
a(I8
I15
tp2180
a(I8
I16
tp2181
a(I8
I17
tp2182
a(I8
I18
tp2183
a(I9
I7
tp2184
a(I9
I8
tp2185
a(I9
I9
tp2186
a(I9
I10
tp2187
a(I9
I11
tp2188
a(I9
I12
tp2189
a(I9
I13
tp2190
a(I9
I14
tp2191
a(I9
I15
tp2192
a(I9
I16
tp2193
a(I9
I17
tp2194
a(I10
I7
tp2195
a(I10
I8
tp2196
a(I10
I9
tp2197
a(I10
I10
tp2198
a(I10
I11
tp2199
a(I10
I12
tp2200
a(I10
I13
tp2201
a(I10
I14
tp2202
a(I10
I15
tp2203
a(I10
I16
tp2204
a(I10
I17
tp2205
a(I11
I7
tp2206
a(I11
I8
tp2207
a(I11
I9
tp2208
a(I11
I10
tp2209
a(I11
I11
tp2210
a(I11
I12
tp2211
a(I11
I13
tp2212
a(I11
I14
tp2213
a(I11
I15
tp2214
a(I11
I16
tp2215
a(I11
I17
tp2216
a(I12
I8
tp2217
a(I12
I9
tp2218
a(I12
I10
tp2219
a(I12
I11
tp2220
a(I12
I12
tp2221
a(I12
I13
tp2222
a(I12
I14
tp2223
a(I12
I15
tp2224
a(I12
I16
tp2225
a(I13
I9
tp2226
a(I13
I10
tp2227
a(I13
I11
tp2228
a(I13
I12
tp2229
a(I13
I13
tp2230
a(I13
I14
tp2231
a(I13
I15
tp2232
a(I14
I12
tp2233
asg27
g1685
sg4
I0
sg29
I70
sg30
g1686
sg32
g1687
sbs(I4
I15
tp2234
(ilibs
_Pellet
p2235
(dp2236
g9
I10
sg26
I0
sg7
Nsg8
I100
sg11
(lp2237
(I1
I15
tp2238
a(I2
I13
tp2239
a(I2
I14
tp2240
a(I2
I15
tp2241
a(I2
I16
tp2242
a(I2
I17
tp2243
a(I3
I13
tp2244
a(I3
I14
tp2245
a(I3
I15
tp2246
a(I3
I16
tp2247
a(I3
I17
tp2248
a(I4
I12
tp2249
a(I4
I13
tp2250
a(I4
I14
tp2251
a(I4
I15
tp2252
a(I4
I16
tp2253
a(I4
I17
tp2254
a(I4
I18
tp2255
a(I5
I13
tp2256
a(I5
I14
tp2257
a(I5
I15
tp2258
a(I5
I16
tp2259
a(I5
I17
tp2260
a(I6
I13
tp2261
a(I6
I14
tp2262
a(I6
I15
tp2263
a(I6
I16
tp2264
a(I6
I17
tp2265
a(I7
I15
tp2266
asg32
g305
sg6
I15
sg10
I60
sg306
(lp2267
g308
asg4
I0
sg29
I100
sg30
g309
sg27
g310
sbs(I2
I11
tp2268
(ilibs
_Pellet
p2269
(dp2270
g9
I10
sg26
I0
sg7
Nsg8
I100
sg11
(lp2271
(I0
I9
tp2272
a(I0
I10
tp2273
a(I0
I11
tp2274
a(I0
I12
tp2275
a(I0
I13
tp2276
a(I1
I9
tp2277
a(I1
I10
tp2278
a(I1
I11
tp2279
a(I1
I12
tp2280
a(I1
I13
tp2281
a(I2
I8
tp2282
a(I2
I9
tp2283
a(I2
I10
tp2284
a(I2
I11
tp2285
a(I2
I12
tp2286
a(I2
I13
tp2287
a(I2
I14
tp2288
a(I3
I9
tp2289
a(I3
I10
tp2290
a(I3
I11
tp2291
a(I3
I12
tp2292
a(I3
I13
tp2293
a(I4
I9
tp2294
a(I4
I10
tp2295
a(I4
I11
tp2296
a(I4
I12
tp2297
a(I4
I13
tp2298
a(I5
I11
tp2299
asg32
g305
sg6
I15
sg10
I60
sg306
(lp2300
g308
asg4
I0
sg29
I100
sg30
g309
sg27
g310
sbs(I16
I18
tp2301
(ilibs
_Pellet
p2302
(dp2303
g9
I10
sg26
I0
sg7
Nsg8
I100
sg11
(lp2304
(I13
I18
tp2305
a(I14
I16
tp2306
a(I14
I17
tp2307
a(I14
I18
tp2308
a(I14
I19
tp2309
a(I15
I16
tp2310
a(I15
I17
tp2311
a(I15
I18
tp2312
a(I15
I19
tp2313
a(I16
I15
tp2314
a(I16
I16
tp2315
a(I16
I17
tp2316
a(I16
I18
tp2317
a(I16
I19
tp2318
a(I17
I16
tp2319
a(I17
I17
tp2320
a(I17
I18
tp2321
a(I17
I19
tp2322
a(I18
I16
tp2323
a(I18
I17
tp2324
a(I18
I18
tp2325
a(I18
I19
tp2326
a(I19
I18
tp2327
asg32
g305
sg6
I15
sg10
I60
sg306
(lp2328
g308
asg4
I0
sg29
I100
sg30
g309
sg27
g310
sbs(I8
I18
tp2329
(ilibs
_Pellet
p2330
(dp2331
g9
I10
sg26
I0
sg7
Nsg8
I100
sg11
(lp2332
(I5
I18
tp2333
a(I6
I16
tp2334
a(I6
I17
tp2335
a(I6
I18
tp2336
a(I6
I19
tp2337
a(I7
I16
tp2338
a(I7
I17
tp2339
a(I7
I18
tp2340
a(I7
I19
tp2341
a(I8
I15
tp2342
a(I8
I16
tp2343
a(I8
I17
tp2344
a(I8
I18
tp2345
a(I8
I19
tp2346
a(I9
I16
tp2347
a(I9
I17
tp2348
a(I9
I18
tp2349
a(I9
I19
tp2350
a(I10
I16
tp2351
a(I10
I17
tp2352
a(I10
I18
tp2353
a(I10
I19
tp2354
a(I11
I18
tp2355
asg32
g305
sg6
I15
sg10
I60
sg306
(lp2356
g308
asg4
I0
sg29
I100
sg30
g309
sg27
g310
sbs(I6
I13
tp2357
(ilibs
_Pellet
p2358
(dp2359
g9
I10
sg26
I0
sg7
Nsg8
I100
sg11
(lp2360
(I3
I13
tp2361
a(I4
I11
tp2362
a(I4
I12
tp2363
a(I4
I13
tp2364
a(I4
I14
tp2365
a(I4
I15
tp2366
a(I5
I11
tp2367
a(I5
I12
tp2368
a(I5
I13
tp2369
a(I5
I14
tp2370
a(I5
I15
tp2371
a(I6
I10
tp2372
a(I6
I11
tp2373
a(I6
I12
tp2374
a(I6
I13
tp2375
a(I6
I14
tp2376
a(I6
I15
tp2377
a(I6
I16
tp2378
a(I7
I11
tp2379
a(I7
I12
tp2380
a(I7
I13
tp2381
a(I7
I14
tp2382
a(I7
I15
tp2383
a(I8
I11
tp2384
a(I8
I12
tp2385
a(I8
I13
tp2386
a(I8
I14
tp2387
a(I8
I15
tp2388
a(I9
I13
tp2389
asg32
g305
sg6
I15
sg10
I60
sg306
(lp2390
g308
asg4
I0
sg29
I100
sg30
g309
sg27
g310
sbs(I11
I15
tp2391
(ilibs
_Pellet
p2392
(dp2393
g9
I10
sg26
I0
sg7
Nsg8
I100
sg11
(lp2394
(I8
I15
tp2395
a(I9
I13
tp2396
a(I9
I14
tp2397
a(I9
I15
tp2398
a(I9
I16
tp2399
a(I9
I17
tp2400
a(I10
I13
tp2401
a(I10
I14
tp2402
a(I10
I15
tp2403
a(I10
I16
tp2404
a(I10
I17
tp2405
a(I11
I12
tp2406
a(I11
I13
tp2407
a(I11
I14
tp2408
a(I11
I15
tp2409
a(I11
I16
tp2410
a(I11
I17
tp2411
a(I11
I18
tp2412
a(I12
I13
tp2413
a(I12
I14
tp2414
a(I12
I15
tp2415
a(I12
I16
tp2416
a(I12
I17
tp2417
a(I13
I13
tp2418
a(I13
I14
tp2419
a(I13
I15
tp2420
a(I13
I16
tp2421
a(I13
I17
tp2422
a(I14
I15
tp2423
asg32
g305
sg6
I15
sg10
I60
sg306
(lp2424
g308
asg4
I0
sg29
I100
sg30
g309
sg27
g310
sbs(I16
I13
tp2425
(ilibs
_Pellet
p2426
(dp2427
g9
I10
sg26
I0
sg7
Nsg8
I100
sg11
(lp2428
(I13
I13
tp2429
a(I14
I11
tp2430
a(I14
I12
tp2431
a(I14
I13
tp2432
a(I14
I14
tp2433
a(I14
I15
tp2434
a(I15
I11
tp2435
a(I15
I12
tp2436
a(I15
I13
tp2437
a(I15
I14
tp2438
a(I15
I15
tp2439
a(I16
I10
tp2440
a(I16
I11
tp2441
a(I16
I12
tp2442
a(I16
I13
tp2443
a(I16
I14
tp2444
a(I16
I15
tp2445
a(I16
I16
tp2446
a(I17
I11
tp2447
a(I17
I12
tp2448
a(I17
I13
tp2449
a(I17
I14
tp2450
a(I17
I15
tp2451
a(I18
I11
tp2452
a(I18
I12
tp2453
a(I18
I13
tp2454
a(I18
I14
tp2455
a(I18
I15
tp2456
a(I19
I13
tp2457
asg32
g305
sg6
I15
sg10
I60
sg306
(lp2458
g308
asg4
I0
sg29
I100
sg30
g309
sg27
g310
sbs(I14
I8
tp2459
(ilibs
_3
p2460
(dp2461
g4
I0
sg9
I20
sg26
I30
sg7
Nsg8
I300
sg6
I100
sg10
I180
sg11
(lp2462
(I5
I8
tp2463
a(I6
I4
tp2464
a(I6
I5
tp2465
a(I6
I6
tp2466
a(I6
I7
tp2467
a(I6
I8
tp2468
a(I6
I9
tp2469
a(I6
I10
tp2470
a(I6
I11
tp2471
a(I6
I12
tp2472
a(I7
I3
tp2473
a(I7
I4
tp2474
a(I7
I5
tp2475
a(I7
I6
tp2476
a(I7
I7
tp2477
a(I7
I8
tp2478
a(I7
I9
tp2479
a(I7
I10
tp2480
a(I7
I11
tp2481
a(I7
I12
tp2482
a(I7
I13
tp2483
a(I8
I2
tp2484
a(I8
I3
tp2485
a(I8
I4
tp2486
a(I8
I5
tp2487
a(I8
I6
tp2488
a(I8
I7
tp2489
a(I8
I8
tp2490
a(I8
I9
tp2491
a(I8
I10
tp2492
a(I8
I11
tp2493
a(I8
I12
tp2494
a(I8
I13
tp2495
a(I8
I14
tp2496
a(I9
I1
tp2497
a(I9
I2
tp2498
a(I9
I3
tp2499
a(I9
I4
tp2500
a(I9
I5
tp2501
a(I9
I6
tp2502
a(I9
I7
tp2503
a(I9
I8
tp2504
a(I9
I9
tp2505
a(I9
I10
tp2506
a(I9
I11
tp2507
a(I9
I12
tp2508
a(I9
I13
tp2509
a(I9
I14
tp2510
a(I9
I15
tp2511
a(I10
I0
tp2512
a(I10
I1
tp2513
a(I10
I2
tp2514
a(I10
I3
tp2515
a(I10
I4
tp2516
a(I10
I5
tp2517
a(I10
I6
tp2518
a(I10
I7
tp2519
a(I10
I8
tp2520
a(I10
I9
tp2521
a(I10
I10
tp2522
a(I10
I11
tp2523
a(I10
I12
tp2524
a(I10
I13
tp2525
a(I10
I14
tp2526
a(I10
I15
tp2527
a(I10
I16
tp2528
a(I11
I0
tp2529
a(I11
I1
tp2530
a(I11
I2
tp2531
a(I11
I3
tp2532
a(I11
I4
tp2533
a(I11
I5
tp2534
a(I11
I6
tp2535
a(I11
I7
tp2536
a(I11
I8
tp2537
a(I11
I9
tp2538
a(I11
I10
tp2539
a(I11
I11
tp2540
a(I11
I12
tp2541
a(I11
I13
tp2542
a(I11
I14
tp2543
a(I11
I15
tp2544
a(I11
I16
tp2545
a(I12
I0
tp2546
a(I12
I1
tp2547
a(I12
I2
tp2548
a(I12
I3
tp2549
a(I12
I4
tp2550
a(I12
I5
tp2551
a(I12
I6
tp2552
a(I12
I7
tp2553
a(I12
I8
tp2554
a(I12
I9
tp2555
a(I12
I10
tp2556
a(I12
I11
tp2557
a(I12
I12
tp2558
a(I12
I13
tp2559
a(I12
I14
tp2560
a(I12
I15
tp2561
a(I12
I16
tp2562
a(I13
I0
tp2563
a(I13
I1
tp2564
a(I13
I2
tp2565
a(I13
I3
tp2566
a(I13
I4
tp2567
a(I13
I5
tp2568
a(I13
I6
tp2569
a(I13
I7
tp2570
a(I13
I8
tp2571
a(I13
I9
tp2572
a(I13
I10
tp2573
a(I13
I11
tp2574
a(I13
I12
tp2575
a(I13
I13
tp2576
a(I13
I14
tp2577
a(I13
I15
tp2578
a(I13
I16
tp2579
a(I14
I0
tp2580
a(I14
I1
tp2581
a(I14
I2
tp2582
a(I14
I3
tp2583
a(I14
I4
tp2584
a(I14
I5
tp2585
a(I14
I6
tp2586
a(I14
I7
tp2587
a(I14
I8
tp2588
a(I14
I9
tp2589
a(I14
I10
tp2590
a(I14
I11
tp2591
a(I14
I12
tp2592
a(I14
I13
tp2593
a(I14
I14
tp2594
a(I14
I15
tp2595
a(I14
I16
tp2596
a(I14
I17
tp2597
a(I15
I0
tp2598
a(I15
I1
tp2599
a(I15
I2
tp2600
a(I15
I3
tp2601
a(I15
I4
tp2602
a(I15
I5
tp2603
a(I15
I6
tp2604
a(I15
I7
tp2605
a(I15
I8
tp2606
a(I15
I9
tp2607
a(I15
I10
tp2608
a(I15
I11
tp2609
a(I15
I12
tp2610
a(I15
I13
tp2611
a(I15
I14
tp2612
a(I15
I15
tp2613
a(I15
I16
tp2614
a(I16
I0
tp2615
a(I16
I1
tp2616
a(I16
I2
tp2617
a(I16
I3
tp2618
a(I16
I4
tp2619
a(I16
I5
tp2620
a(I16
I6
tp2621
a(I16
I7
tp2622
a(I16
I8
tp2623
a(I16
I9
tp2624
a(I16
I10
tp2625
a(I16
I11
tp2626
a(I16
I12
tp2627
a(I16
I13
tp2628
a(I16
I14
tp2629
a(I16
I15
tp2630
a(I16
I16
tp2631
a(I17
I0
tp2632
a(I17
I1
tp2633
a(I17
I2
tp2634
a(I17
I3
tp2635
a(I17
I4
tp2636
a(I17
I5
tp2637
a(I17
I6
tp2638
a(I17
I7
tp2639
a(I17
I8
tp2640
a(I17
I9
tp2641
a(I17
I10
tp2642
a(I17
I11
tp2643
a(I17
I12
tp2644
a(I17
I13
tp2645
a(I17
I14
tp2646
a(I17
I15
tp2647
a(I17
I16
tp2648
a(I18
I0
tp2649
a(I18
I1
tp2650
a(I18
I2
tp2651
a(I18
I3
tp2652
a(I18
I4
tp2653
a(I18
I5
tp2654
a(I18
I6
tp2655
a(I18
I7
tp2656
a(I18
I8
tp2657
a(I18
I9
tp2658
a(I18
I10
tp2659
a(I18
I11
tp2660
a(I18
I12
tp2661
a(I18
I13
tp2662
a(I18
I14
tp2663
a(I18
I15
tp2664
a(I18
I16
tp2665
a(I19
I1
tp2666
a(I19
I2
tp2667
a(I19
I3
tp2668
a(I19
I4
tp2669
a(I19
I5
tp2670
a(I19
I6
tp2671
a(I19
I7
tp2672
a(I19
I8
tp2673
a(I19
I9
tp2674
a(I19
I10
tp2675
a(I19
I11
tp2676
a(I19
I12
tp2677
a(I19
I13
tp2678
a(I19
I14
tp2679
a(I19
I15
tp2680
asg27
g270
sg29
I300
sg30
g271
sg32
g272
sbs(I13
I0
tp2681
(ilibs
_Pellet
p2682
(dp2683
g9
I10
sg26
I0
sg7
Nsg8
I100
sg11
(lp2684
(I10
I0
tp2685
a(I11
I0
tp2686
a(I11
I1
tp2687
a(I11
I2
tp2688
a(I12
I0
tp2689
a(I12
I1
tp2690
a(I12
I2
tp2691
a(I13
I0
tp2692
a(I13
I1
tp2693
a(I13
I2
tp2694
a(I13
I3
tp2695
a(I14
I0
tp2696
a(I14
I1
tp2697
a(I14
I2
tp2698
a(I15
I0
tp2699
a(I15
I1
tp2700
a(I15
I2
tp2701
a(I16
I0
tp2702
asg32
g305
sg6
I15
sg10
I60
sg306
(lp2703
g308
asg4
I0
sg29
I100
sg30
g309
sg27
g310
sbs(I12
I8
tp2704
(ilibs
_3
p2705
(dp2706
g4
I0
sg9
I20
sg26
I30
sg7
Nsg8
I300
sg6
I100
sg10
I180
sg11
(lp2707
(I3
I8
tp2708
a(I4
I4
tp2709
a(I4
I5
tp2710
a(I4
I6
tp2711
a(I4
I7
tp2712
a(I4
I8
tp2713
a(I4
I9
tp2714
a(I4
I10
tp2715
a(I4
I11
tp2716
a(I4
I12
tp2717
a(I5
I3
tp2718
a(I5
I4
tp2719
a(I5
I5
tp2720
a(I5
I6
tp2721
a(I5
I7
tp2722
a(I5
I8
tp2723
a(I5
I9
tp2724
a(I5
I10
tp2725
a(I5
I11
tp2726
a(I5
I12
tp2727
a(I5
I13
tp2728
a(I6
I2
tp2729
a(I6
I3
tp2730
a(I6
I4
tp2731
a(I6
I5
tp2732
a(I6
I6
tp2733
a(I6
I7
tp2734
a(I6
I8
tp2735
a(I6
I9
tp2736
a(I6
I10
tp2737
a(I6
I11
tp2738
a(I6
I12
tp2739
a(I6
I13
tp2740
a(I6
I14
tp2741
a(I7
I1
tp2742
a(I7
I2
tp2743
a(I7
I3
tp2744
a(I7
I4
tp2745
a(I7
I5
tp2746
a(I7
I6
tp2747
a(I7
I7
tp2748
a(I7
I8
tp2749
a(I7
I9
tp2750
a(I7
I10
tp2751
a(I7
I11
tp2752
a(I7
I12
tp2753
a(I7
I13
tp2754
a(I7
I14
tp2755
a(I7
I15
tp2756
a(I8
I0
tp2757
a(I8
I1
tp2758
a(I8
I2
tp2759
a(I8
I3
tp2760
a(I8
I4
tp2761
a(I8
I5
tp2762
a(I8
I6
tp2763
a(I8
I7
tp2764
a(I8
I8
tp2765
a(I8
I9
tp2766
a(I8
I10
tp2767
a(I8
I11
tp2768
a(I8
I12
tp2769
a(I8
I13
tp2770
a(I8
I14
tp2771
a(I8
I15
tp2772
a(I8
I16
tp2773
a(I9
I0
tp2774
a(I9
I1
tp2775
a(I9
I2
tp2776
a(I9
I3
tp2777
a(I9
I4
tp2778
a(I9
I5
tp2779
a(I9
I6
tp2780
a(I9
I7
tp2781
a(I9
I8
tp2782
a(I9
I9
tp2783
a(I9
I10
tp2784
a(I9
I11
tp2785
a(I9
I12
tp2786
a(I9
I13
tp2787
a(I9
I14
tp2788
a(I9
I15
tp2789
a(I9
I16
tp2790
a(I10
I0
tp2791
a(I10
I1
tp2792
a(I10
I2
tp2793
a(I10
I3
tp2794
a(I10
I4
tp2795
a(I10
I5
tp2796
a(I10
I6
tp2797
a(I10
I7
tp2798
a(I10
I8
tp2799
a(I10
I9
tp2800
a(I10
I10
tp2801
a(I10
I11
tp2802
a(I10
I12
tp2803
a(I10
I13
tp2804
a(I10
I14
tp2805
a(I10
I15
tp2806
a(I10
I16
tp2807
a(I11
I0
tp2808
a(I11
I1
tp2809
a(I11
I2
tp2810
a(I11
I3
tp2811
a(I11
I4
tp2812
a(I11
I5
tp2813
a(I11
I6
tp2814
a(I11
I7
tp2815
a(I11
I8
tp2816
a(I11
I9
tp2817
a(I11
I10
tp2818
a(I11
I11
tp2819
a(I11
I12
tp2820
a(I11
I13
tp2821
a(I11
I14
tp2822
a(I11
I15
tp2823
a(I11
I16
tp2824
a(I12
I0
tp2825
a(I12
I1
tp2826
a(I12
I2
tp2827
a(I12
I3
tp2828
a(I12
I4
tp2829
a(I12
I5
tp2830
a(I12
I6
tp2831
a(I12
I7
tp2832
a(I12
I8
tp2833
a(I12
I9
tp2834
a(I12
I10
tp2835
a(I12
I11
tp2836
a(I12
I12
tp2837
a(I12
I13
tp2838
a(I12
I14
tp2839
a(I12
I15
tp2840
a(I12
I16
tp2841
a(I12
I17
tp2842
a(I13
I0
tp2843
a(I13
I1
tp2844
a(I13
I2
tp2845
a(I13
I3
tp2846
a(I13
I4
tp2847
a(I13
I5
tp2848
a(I13
I6
tp2849
a(I13
I7
tp2850
a(I13
I8
tp2851
a(I13
I9
tp2852
a(I13
I10
tp2853
a(I13
I11
tp2854
a(I13
I12
tp2855
a(I13
I13
tp2856
a(I13
I14
tp2857
a(I13
I15
tp2858
a(I13
I16
tp2859
a(I14
I0
tp2860
a(I14
I1
tp2861
a(I14
I2
tp2862
a(I14
I3
tp2863
a(I14
I4
tp2864
a(I14
I5
tp2865
a(I14
I6
tp2866
a(I14
I7
tp2867
a(I14
I8
tp2868
a(I14
I9
tp2869
a(I14
I10
tp2870
a(I14
I11
tp2871
a(I14
I12
tp2872
a(I14
I13
tp2873
a(I14
I14
tp2874
a(I14
I15
tp2875
a(I14
I16
tp2876
a(I15
I0
tp2877
a(I15
I1
tp2878
a(I15
I2
tp2879
a(I15
I3
tp2880
a(I15
I4
tp2881
a(I15
I5
tp2882
a(I15
I6
tp2883
a(I15
I7
tp2884
a(I15
I8
tp2885
a(I15
I9
tp2886
a(I15
I10
tp2887
a(I15
I11
tp2888
a(I15
I12
tp2889
a(I15
I13
tp2890
a(I15
I14
tp2891
a(I15
I15
tp2892
a(I15
I16
tp2893
a(I16
I0
tp2894
a(I16
I1
tp2895
a(I16
I2
tp2896
a(I16
I3
tp2897
a(I16
I4
tp2898
a(I16
I5
tp2899
a(I16
I6
tp2900
a(I16
I7
tp2901
a(I16
I8
tp2902
a(I16
I9
tp2903
a(I16
I10
tp2904
a(I16
I11
tp2905
a(I16
I12
tp2906
a(I16
I13
tp2907
a(I16
I14
tp2908
a(I16
I15
tp2909
a(I16
I16
tp2910
a(I17
I1
tp2911
a(I17
I2
tp2912
a(I17
I3
tp2913
a(I17
I4
tp2914
a(I17
I5
tp2915
a(I17
I6
tp2916
a(I17
I7
tp2917
a(I17
I8
tp2918
a(I17
I9
tp2919
a(I17
I10
tp2920
a(I17
I11
tp2921
a(I17
I12
tp2922
a(I17
I13
tp2923
a(I17
I14
tp2924
a(I17
I15
tp2925
a(I18
I2
tp2926
a(I18
I3
tp2927
a(I18
I4
tp2928
a(I18
I5
tp2929
a(I18
I6
tp2930
a(I18
I7
tp2931
a(I18
I8
tp2932
a(I18
I9
tp2933
a(I18
I10
tp2934
a(I18
I11
tp2935
a(I18
I12
tp2936
a(I18
I13
tp2937
a(I18
I14
tp2938
a(I19
I3
tp2939
a(I19
I4
tp2940
a(I19
I5
tp2941
a(I19
I6
tp2942
a(I19
I7
tp2943
a(I19
I8
tp2944
a(I19
I9
tp2945
a(I19
I10
tp2946
a(I19
I11
tp2947
a(I19
I12
tp2948
a(I19
I13
tp2949
asg27
g270
sg29
I300
sg30
g271
sg32
g272
sbs(I17
I8
tp2950
(ilibs
_Pellet
p2951
(dp2952
g9
I10
sg26
I0
sg7
Nsg8
I100
sg11
(lp2953
(I14
I8
tp2954
a(I15
I6
tp2955
a(I15
I7
tp2956
a(I15
I8
tp2957
a(I15
I9
tp2958
a(I15
I10
tp2959
a(I16
I6
tp2960
a(I16
I7
tp2961
a(I16
I8
tp2962
a(I16
I9
tp2963
a(I16
I10
tp2964
a(I17
I5
tp2965
a(I17
I6
tp2966
a(I17
I7
tp2967
a(I17
I8
tp2968
a(I17
I9
tp2969
a(I17
I10
tp2970
a(I17
I11
tp2971
a(I18
I6
tp2972
a(I18
I7
tp2973
a(I18
I8
tp2974
a(I18
I9
tp2975
a(I18
I10
tp2976
a(I19
I6
tp2977
a(I19
I7
tp2978
a(I19
I8
tp2979
a(I19
I9
tp2980
a(I19
I10
tp2981
asg32
g305
sg6
I15
sg10
I60
sg306
(lp2982
g308
asg4
I0
sg29
I100
sg30
g309
sg27
g310
sbs(I15
I13
tp2983
(ilibs
_Pellet
p2984
(dp2985
g9
I10
sg26
I0
sg7
Nsg8
I100
sg11
(lp2986
(I12
I13
tp2987
a(I13
I11
tp2988
a(I13
I12
tp2989
a(I13
I13
tp2990
a(I13
I14
tp2991
a(I13
I15
tp2992
a(I14
I11
tp2993
a(I14
I12
tp2994
a(I14
I13
tp2995
a(I14
I14
tp2996
a(I14
I15
tp2997
a(I15
I10
tp2998
a(I15
I11
tp2999
a(I15
I12
tp3000
a(I15
I13
tp3001
a(I15
I14
tp3002
a(I15
I15
tp3003
a(I15
I16
tp3004
a(I16
I11
tp3005
a(I16
I12
tp3006
a(I16
I13
tp3007
a(I16
I14
tp3008
a(I16
I15
tp3009
a(I17
I11
tp3010
a(I17
I12
tp3011
a(I17
I13
tp3012
a(I17
I14
tp3013
a(I17
I15
tp3014
a(I18
I13
tp3015
asg32
g305
sg6
I15
sg10
I60
sg306
(lp3016
g308
asg4
I0
sg29
I100
sg30
g309
sg27
g310
sbs(I13
I13
tp3017
(ilibs
_Pellet
p3018
(dp3019
g9
I10
sg26
I0
sg7
Nsg8
I100
sg11
(lp3020
(I10
I13
tp3021
a(I11
I11
tp3022
a(I11
I12
tp3023
a(I11
I13
tp3024
a(I11
I14
tp3025
a(I11
I15
tp3026
a(I12
I11
tp3027
a(I12
I12
tp3028
a(I12
I13
tp3029
a(I12
I14
tp3030
a(I12
I15
tp3031
a(I13
I10
tp3032
a(I13
I11
tp3033
a(I13
I12
tp3034
a(I13
I13
tp3035
a(I13
I14
tp3036
a(I13
I15
tp3037
a(I13
I16
tp3038
a(I14
I11
tp3039
a(I14
I12
tp3040
a(I14
I13
tp3041
a(I14
I14
tp3042
a(I14
I15
tp3043
a(I15
I11
tp3044
a(I15
I12
tp3045
a(I15
I13
tp3046
a(I15
I14
tp3047
a(I15
I15
tp3048
a(I16
I13
tp3049
asg32
g305
sg6
I15
sg10
I60
sg306
(lp3050
g308
asg4
I0
sg29
I100
sg30
g309
sg27
g310
sbs(I2
I18
tp3051
(ilibs
_Pellet
p3052
(dp3053
g9
I10
sg26
I0
sg7
Nsg8
I100
sg11
(lp3054
(I0
I16
tp3055
a(I0
I17
tp3056
a(I0
I18
tp3057
a(I0
I19
tp3058
a(I1
I16
tp3059
a(I1
I17
tp3060
a(I1
I18
tp3061
a(I1
I19
tp3062
a(I2
I15
tp3063
a(I2
I16
tp3064
a(I2
I17
tp3065
a(I2
I18
tp3066
a(I2
I19
tp3067
a(I3
I16
tp3068
a(I3
I17
tp3069
a(I3
I18
tp3070
a(I3
I19
tp3071
a(I4
I16
tp3072
a(I4
I17
tp3073
a(I4
I18
tp3074
a(I4
I19
tp3075
a(I5
I18
tp3076
asg32
g305
sg6
I15
sg10
I60
sg306
(lp3077
g308
asg4
I0
sg29
I100
sg30
g309
sg27
g310
sbs(I18
I15
tp3078
(ilibs
_Pellet
p3079
(dp3080
g9
I10
sg26
I0
sg7
Nsg8
I100
sg11
(lp3081
(I15
I15
tp3082
a(I16
I13
tp3083
a(I16
I14
tp3084
a(I16
I15
tp3085
a(I16
I16
tp3086
a(I16
I17
tp3087
a(I17
I13
tp3088
a(I17
I14
tp3089
a(I17
I15
tp3090
a(I17
I16
tp3091
a(I17
I17
tp3092
a(I18
I12
tp3093
a(I18
I13
tp3094
a(I18
I14
tp3095
a(I18
I15
tp3096
a(I18
I16
tp3097
a(I18
I17
tp3098
a(I18
I18
tp3099
a(I19
I13
tp3100
a(I19
I14
tp3101
a(I19
I15
tp3102
a(I19
I16
tp3103
a(I19
I17
tp3104
asg32
g305
sg6
I15
sg10
I60
sg306
(lp3105
g308
asg4
I0
sg29
I100
sg30
g309
sg27
g310
sbs(I0
I14
tp3106
(ilibs
_Pellet
p3107
(dp3108
g9
I10
sg26
I0
sg7
Nsg8
I100
sg11
(lp3109
(I0
I11
tp3110
a(I0
I12
tp3111
a(I0
I13
tp3112
a(I0
I14
tp3113
a(I0
I15
tp3114
a(I0
I16
tp3115
a(I0
I17
tp3116
a(I1
I12
tp3117
a(I1
I13
tp3118
a(I1
I14
tp3119
a(I1
I15
tp3120
a(I1
I16
tp3121
a(I2
I12
tp3122
a(I2
I13
tp3123
a(I2
I14
tp3124
a(I2
I15
tp3125
a(I2
I16
tp3126
a(I3
I14
tp3127
asg32
g305
sg6
I15
sg10
I60
sg306
(lp3128
g308
asg4
I0
sg29
I100
sg30
g309
sg27
g310
sbs(I3
I11
tp3129
(ilibs
_Pellet
p3130
(dp3131
g9
I10
sg26
I0
sg7
Nsg8
I100
sg11
(lp3132
(I0
I11
tp3133
a(I1
I9
tp3134
a(I1
I10
tp3135
a(I1
I11
tp3136
a(I1
I12
tp3137
a(I1
I13
tp3138
a(I2
I9
tp3139
a(I2
I10
tp3140
a(I2
I11
tp3141
a(I2
I12
tp3142
a(I2
I13
tp3143
a(I3
I8
tp3144
a(I3
I9
tp3145
a(I3
I10
tp3146
a(I3
I11
tp3147
a(I3
I12
tp3148
a(I3
I13
tp3149
a(I3
I14
tp3150
a(I4
I9
tp3151
a(I4
I10
tp3152
a(I4
I11
tp3153
a(I4
I12
tp3154
a(I4
I13
tp3155
a(I5
I9
tp3156
a(I5
I10
tp3157
a(I5
I11
tp3158
a(I5
I12
tp3159
a(I5
I13
tp3160
a(I6
I11
tp3161
asg32
g305
sg6
I15
sg10
I60
sg306
(lp3162
g308
asg4
I0
sg29
I100
sg30
g309
sg27
g310
sbs(I8
I9
tp3163
(ilibs
_Aqua
p3164
(dp3165
g9
I5
sg26
I30
sg7
Nsg8
I70
sg6
I30
sg10
I120
sg11
(lp3166
(I2
I9
tp3167
a(I3
I6
tp3168
a(I3
I7
tp3169
a(I3
I8
tp3170
a(I3
I9
tp3171
a(I3
I10
tp3172
a(I3
I11
tp3173
a(I3
I12
tp3174
a(I4
I5
tp3175
a(I4
I6
tp3176
a(I4
I7
tp3177
a(I4
I8
tp3178
a(I4
I9
tp3179
a(I4
I10
tp3180
a(I4
I11
tp3181
a(I4
I12
tp3182
a(I4
I13
tp3183
a(I5
I4
tp3184
a(I5
I5
tp3185
a(I5
I6
tp3186
a(I5
I7
tp3187
a(I5
I8
tp3188
a(I5
I9
tp3189
a(I5
I10
tp3190
a(I5
I11
tp3191
a(I5
I12
tp3192
a(I5
I13
tp3193
a(I5
I14
tp3194
a(I6
I4
tp3195
a(I6
I5
tp3196
a(I6
I6
tp3197
a(I6
I7
tp3198
a(I6
I8
tp3199
a(I6
I9
tp3200
a(I6
I10
tp3201
a(I6
I11
tp3202
a(I6
I12
tp3203
a(I6
I13
tp3204
a(I6
I14
tp3205
a(I7
I4
tp3206
a(I7
I5
tp3207
a(I7
I6
tp3208
a(I7
I7
tp3209
a(I7
I8
tp3210
a(I7
I9
tp3211
a(I7
I10
tp3212
a(I7
I11
tp3213
a(I7
I12
tp3214
a(I7
I13
tp3215
a(I7
I14
tp3216
a(I8
I3
tp3217
a(I8
I4
tp3218
a(I8
I5
tp3219
a(I8
I6
tp3220
a(I8
I7
tp3221
a(I8
I8
tp3222
a(I8
I9
tp3223
a(I8
I10
tp3224
a(I8
I11
tp3225
a(I8
I12
tp3226
a(I8
I13
tp3227
a(I8
I14
tp3228
a(I8
I15
tp3229
a(I9
I4
tp3230
a(I9
I5
tp3231
a(I9
I6
tp3232
a(I9
I7
tp3233
a(I9
I8
tp3234
a(I9
I9
tp3235
a(I9
I10
tp3236
a(I9
I11
tp3237
a(I9
I12
tp3238
a(I9
I13
tp3239
a(I9
I14
tp3240
a(I10
I4
tp3241
a(I10
I5
tp3242
a(I10
I6
tp3243
a(I10
I7
tp3244
a(I10
I8
tp3245
a(I10
I9
tp3246
a(I10
I10
tp3247
a(I10
I11
tp3248
a(I10
I12
tp3249
a(I10
I13
tp3250
a(I10
I14
tp3251
a(I11
I4
tp3252
a(I11
I5
tp3253
a(I11
I6
tp3254
a(I11
I7
tp3255
a(I11
I8
tp3256
a(I11
I9
tp3257
a(I11
I10
tp3258
a(I11
I11
tp3259
a(I11
I12
tp3260
a(I11
I13
tp3261
a(I11
I14
tp3262
a(I12
I5
tp3263
a(I12
I6
tp3264
a(I12
I7
tp3265
a(I12
I8
tp3266
a(I12
I9
tp3267
a(I12
I10
tp3268
a(I12
I11
tp3269
a(I12
I12
tp3270
a(I12
I13
tp3271
a(I13
I6
tp3272
a(I13
I7
tp3273
a(I13
I8
tp3274
a(I13
I9
tp3275
a(I13
I10
tp3276
a(I13
I11
tp3277
a(I13
I12
tp3278
a(I14
I9
tp3279
asg27
g1685
sg4
I0
sg29
I70
sg30
g1686
sg32
g1687
sbs(I9
I4
tp3280
(ilibs
_Pellet
p3281
(dp3282
g9
I10
sg26
I0
sg7
Nsg8
I100
sg11
(lp3283
(I6
I4
tp3284
a(I7
I2
tp3285
a(I7
I3
tp3286
a(I7
I4
tp3287
a(I7
I5
tp3288
a(I7
I6
tp3289
a(I8
I2
tp3290
a(I8
I3
tp3291
a(I8
I4
tp3292
a(I8
I5
tp3293
a(I8
I6
tp3294
a(I9
I1
tp3295
a(I9
I2
tp3296
a(I9
I3
tp3297
a(I9
I4
tp3298
a(I9
I5
tp3299
a(I9
I6
tp3300
a(I9
I7
tp3301
a(I10
I2
tp3302
a(I10
I3
tp3303
a(I10
I4
tp3304
a(I10
I5
tp3305
a(I10
I6
tp3306
a(I11
I2
tp3307
a(I11
I3
tp3308
a(I11
I4
tp3309
a(I11
I5
tp3310
a(I11
I6
tp3311
a(I12
I4
tp3312
asg32
g305
sg6
I15
sg10
I60
sg306
(lp3313
g308
asg4
I0
sg29
I100
sg30
g309
sg27
g310
sbs(I6
I17
tp3314
(ilibs
_Pellet
p3315
(dp3316
g9
I10
sg26
I0
sg7
Nsg8
I100
sg11
(lp3317
(I3
I17
tp3318
a(I4
I15
tp3319
a(I4
I16
tp3320
a(I4
I17
tp3321
a(I4
I18
tp3322
a(I4
I19
tp3323
a(I5
I15
tp3324
a(I5
I16
tp3325
a(I5
I17
tp3326
a(I5
I18
tp3327
a(I5
I19
tp3328
a(I6
I14
tp3329
a(I6
I15
tp3330
a(I6
I16
tp3331
a(I6
I17
tp3332
a(I6
I18
tp3333
a(I6
I19
tp3334
a(I7
I15
tp3335
a(I7
I16
tp3336
a(I7
I17
tp3337
a(I7
I18
tp3338
a(I7
I19
tp3339
a(I8
I15
tp3340
a(I8
I16
tp3341
a(I8
I17
tp3342
a(I8
I18
tp3343
a(I8
I19
tp3344
a(I9
I17
tp3345
asg32
g305
sg6
I15
sg10
I60
sg306
(lp3346
g308
asg4
I0
sg29
I100
sg30
g309
sg27
g310
sbs(I7
I2
tp3347
(ilibs
_4
p3348
(dp3349
g4
I0
sg5
I01
sg6
I200
sg7
Nsg8
I300
sg9
I40
sg10
I40
sg11
(lp3350
(I5
I2
tp3351
a(I6
I1
tp3352
a(I6
I2
tp3353
a(I6
I3
tp3354
a(I7
I0
tp3355
a(I7
I1
tp3356
a(I7
I2
tp3357
a(I7
I3
tp3358
a(I7
I4
tp3359
a(I8
I1
tp3360
a(I8
I2
tp3361
a(I8
I3
tp3362
a(I9
I2
tp3363
asg26
I30
sg27
g28
sg29
I300
sg30
g31
sg32
g33
sbs(I11
I10
tp3364
(ilibs
_Pellet
p3365
(dp3366
g9
I10
sg26
I0
sg7
Nsg8
I100
sg11
(lp3367
(I8
I10
tp3368
a(I9
I8
tp3369
a(I9
I9
tp3370
a(I9
I10
tp3371
a(I9
I11
tp3372
a(I9
I12
tp3373
a(I10
I8
tp3374
a(I10
I9
tp3375
a(I10
I10
tp3376
a(I10
I11
tp3377
a(I10
I12
tp3378
a(I11
I7
tp3379
a(I11
I8
tp3380
a(I11
I9
tp3381
a(I11
I10
tp3382
a(I11
I11
tp3383
a(I11
I12
tp3384
a(I11
I13
tp3385
a(I12
I8
tp3386
a(I12
I9
tp3387
a(I12
I10
tp3388
a(I12
I11
tp3389
a(I12
I12
tp3390
a(I13
I8
tp3391
a(I13
I9
tp3392
a(I13
I10
tp3393
a(I13
I11
tp3394
a(I13
I12
tp3395
a(I14
I10
tp3396
asg32
g305
sg6
I15
sg10
I60
sg306
(lp3397
g308
asg4
I0
sg29
I100
sg30
g309
sg27
g310
sbs(I7
I15
tp3398
(ilibs
_Pellet
p3399
(dp3400
g9
I10
sg26
I0
sg7
Nsg8
I100
sg11
(lp3401
(I4
I15
tp3402
a(I5
I13
tp3403
a(I5
I14
tp3404
a(I5
I15
tp3405
a(I5
I16
tp3406
a(I5
I17
tp3407
a(I6
I13
tp3408
a(I6
I14
tp3409
a(I6
I15
tp3410
a(I6
I16
tp3411
a(I6
I17
tp3412
a(I7
I12
tp3413
a(I7
I13
tp3414
a(I7
I14
tp3415
a(I7
I15
tp3416
a(I7
I16
tp3417
a(I7
I17
tp3418
a(I7
I18
tp3419
a(I8
I13
tp3420
a(I8
I14
tp3421
a(I8
I15
tp3422
a(I8
I16
tp3423
a(I8
I17
tp3424
a(I9
I13
tp3425
a(I9
I14
tp3426
a(I9
I15
tp3427
a(I9
I16
tp3428
a(I9
I17
tp3429
a(I10
I15
tp3430
asg32
g305
sg6
I15
sg10
I60
sg306
(lp3431
g308
asg4
I0
sg29
I100
sg30
g309
sg27
g310
sbs(I13
I3
tp3432
(ilibs
_Pellet
p3433
(dp3434
g9
I10
sg26
I0
sg7
Nsg8
I100
sg11
(lp3435
(I10
I3
tp3436
a(I11
I1
tp3437
a(I11
I2
tp3438
a(I11
I3
tp3439
a(I11
I4
tp3440
a(I11
I5
tp3441
a(I12
I1
tp3442
a(I12
I2
tp3443
a(I12
I3
tp3444
a(I12
I4
tp3445
a(I12
I5
tp3446
a(I13
I0
tp3447
a(I13
I1
tp3448
a(I13
I2
tp3449
a(I13
I3
tp3450
a(I13
I4
tp3451
a(I13
I5
tp3452
a(I13
I6
tp3453
a(I14
I1
tp3454
a(I14
I2
tp3455
a(I14
I3
tp3456
a(I14
I4
tp3457
a(I14
I5
tp3458
a(I15
I1
tp3459
a(I15
I2
tp3460
a(I15
I3
tp3461
a(I15
I4
tp3462
a(I15
I5
tp3463
a(I16
I3
tp3464
asg32
g305
sg6
I15
sg10
I60
sg306
(lp3465
g308
asg4
I0
sg29
I100
sg30
g309
sg27
g310
sbs(I12
I13
tp3466
(ilibs
_Pellet
p3467
(dp3468
g9
I10
sg26
I0
sg7
Nsg8
I100
sg11
(lp3469
(I9
I13
tp3470
a(I10
I11
tp3471
a(I10
I12
tp3472
a(I10
I13
tp3473
a(I10
I14
tp3474
a(I10
I15
tp3475
a(I11
I11
tp3476
a(I11
I12
tp3477
a(I11
I13
tp3478
a(I11
I14
tp3479
a(I11
I15
tp3480
a(I12
I10
tp3481
a(I12
I11
tp3482
a(I12
I12
tp3483
a(I12
I13
tp3484
a(I12
I14
tp3485
a(I12
I15
tp3486
a(I12
I16
tp3487
a(I13
I11
tp3488
a(I13
I12
tp3489
a(I13
I13
tp3490
a(I13
I14
tp3491
a(I13
I15
tp3492
a(I14
I11
tp3493
a(I14
I12
tp3494
a(I14
I13
tp3495
a(I14
I14
tp3496
a(I14
I15
tp3497
a(I15
I13
tp3498
asg32
g305
sg6
I15
sg10
I60
sg306
(lp3499
g308
asg4
I0
sg29
I100
sg30
g309
sg27
g310
sbs(I18
I5
tp3500
(ilibs
_Pellet
p3501
(dp3502
g9
I10
sg26
I0
sg7
Nsg8
I100
sg11
(lp3503
(I15
I5
tp3504
a(I16
I3
tp3505
a(I16
I4
tp3506
a(I16
I5
tp3507
a(I16
I6
tp3508
a(I16
I7
tp3509
a(I17
I3
tp3510
a(I17
I4
tp3511
a(I17
I5
tp3512
a(I17
I6
tp3513
a(I17
I7
tp3514
a(I18
I2
tp3515
a(I18
I3
tp3516
a(I18
I4
tp3517
a(I18
I5
tp3518
a(I18
I6
tp3519
a(I18
I7
tp3520
a(I18
I8
tp3521
a(I19
I3
tp3522
a(I19
I4
tp3523
a(I19
I5
tp3524
a(I19
I6
tp3525
a(I19
I7
tp3526
asg32
g305
sg6
I15
sg10
I60
sg306
(lp3527
g308
asg4
I0
sg29
I100
sg30
g309
sg27
g310
sbs(I15
I0
tp3528
(ilibs
_Pellet
p3529
(dp3530
g9
I10
sg26
I0
sg7
Nsg8
I100
sg11
(lp3531
(I12
I0
tp3532
a(I13
I0
tp3533
a(I13
I1
tp3534
a(I13
I2
tp3535
a(I14
I0
tp3536
a(I14
I1
tp3537
a(I14
I2
tp3538
a(I15
I0
tp3539
a(I15
I1
tp3540
a(I15
I2
tp3541
a(I15
I3
tp3542
a(I16
I0
tp3543
a(I16
I1
tp3544
a(I16
I2
tp3545
a(I17
I0
tp3546
a(I17
I1
tp3547
a(I17
I2
tp3548
a(I18
I0
tp3549
asg32
g305
sg6
I15
sg10
I60
sg306
(lp3550
g308
asg4
I0
sg29
I100
sg30
g309
sg27
g310
sbs(I18
I16
tp3551
(ilibs
_Pellet
p3552
(dp3553
g9
I10
sg26
I0
sg7
Nsg8
I100
sg11
(lp3554
(I15
I16
tp3555
a(I16
I14
tp3556
a(I16
I15
tp3557
a(I16
I16
tp3558
a(I16
I17
tp3559
a(I16
I18
tp3560
a(I17
I14
tp3561
a(I17
I15
tp3562
a(I17
I16
tp3563
a(I17
I17
tp3564
a(I17
I18
tp3565
a(I18
I13
tp3566
a(I18
I14
tp3567
a(I18
I15
tp3568
a(I18
I16
tp3569
a(I18
I17
tp3570
a(I18
I18
tp3571
a(I18
I19
tp3572
a(I19
I14
tp3573
a(I19
I15
tp3574
a(I19
I16
tp3575
a(I19
I17
tp3576
a(I19
I18
tp3577
asg32
g305
sg6
I15
sg10
I60
sg306
(lp3578
g308
asg4
I0
sg29
I100
sg30
g309
sg27
g310
sbs(I0
I11
tp3579
(ilibs
_Pellet
p3580
(dp3581
g9
I10
sg26
I0
sg7
Nsg8
I100
sg11
(lp3582
(I0
I8
tp3583
a(I0
I9
tp3584
a(I0
I10
tp3585
a(I0
I11
tp3586
a(I0
I12
tp3587
a(I0
I13
tp3588
a(I0
I14
tp3589
a(I1
I9
tp3590
a(I1
I10
tp3591
a(I1
I11
tp3592
a(I1
I12
tp3593
a(I1
I13
tp3594
a(I2
I9
tp3595
a(I2
I10
tp3596
a(I2
I11
tp3597
a(I2
I12
tp3598
a(I2
I13
tp3599
a(I3
I11
tp3600
asg32
g305
sg6
I15
sg10
I60
sg306
(lp3601
g308
asg4
I0
sg29
I100
sg30
g309
sg27
g310
sbs(I3
I6
tp3602
(ilibs
_Pellet
p3603
(dp3604
g9
I10
sg26
I0
sg7
Nsg8
I100
sg11
(lp3605
(I0
I6
tp3606
a(I1
I4
tp3607
a(I1
I5
tp3608
a(I1
I6
tp3609
a(I1
I7
tp3610
a(I1
I8
tp3611
a(I2
I4
tp3612
a(I2
I5
tp3613
a(I2
I6
tp3614
a(I2
I7
tp3615
a(I2
I8
tp3616
a(I3
I3
tp3617
a(I3
I4
tp3618
a(I3
I5
tp3619
a(I3
I6
tp3620
a(I3
I7
tp3621
a(I3
I8
tp3622
a(I3
I9
tp3623
a(I4
I4
tp3624
a(I4
I5
tp3625
a(I4
I6
tp3626
a(I4
I7
tp3627
a(I4
I8
tp3628
a(I5
I4
tp3629
a(I5
I5
tp3630
a(I5
I6
tp3631
a(I5
I7
tp3632
a(I5
I8
tp3633
a(I6
I6
tp3634
asg32
g305
sg6
I15
sg10
I60
sg306
(lp3635
g308
asg4
I0
sg29
I100
sg30
g309
sg27
g310
sbs(I2
I2
tp3636
(ilibs
_Pellet
p3637
(dp3638
g9
I10
sg26
I0
sg7
Nsg8
I100
sg11
(lp3639
(I0
I0
tp3640
a(I0
I1
tp3641
a(I0
I2
tp3642
a(I0
I3
tp3643
a(I0
I4
tp3644
a(I1
I0
tp3645
a(I1
I1
tp3646
a(I1
I2
tp3647
a(I1
I3
tp3648
a(I1
I4
tp3649
a(I2
I0
tp3650
a(I2
I1
tp3651
a(I2
I2
tp3652
a(I2
I3
tp3653
a(I2
I4
tp3654
a(I2
I5
tp3655
a(I3
I0
tp3656
a(I3
I1
tp3657
a(I3
I2
tp3658
a(I3
I3
tp3659
a(I3
I4
tp3660
a(I4
I0
tp3661
a(I4
I1
tp3662
a(I4
I2
tp3663
a(I4
I3
tp3664
a(I4
I4
tp3665
a(I5
I2
tp3666
asg32
g305
sg6
I15
sg10
I60
sg306
(lp3667
g308
asg4
I0
sg29
I100
sg30
g309
sg27
g310
sbs(I8
I6
tp3668
(ilibs
_Pellet
p3669
(dp3670
g9
I10
sg26
I0
sg7
Nsg8
I100
sg11
(lp3671
(I5
I6
tp3672
a(I6
I4
tp3673
a(I6
I5
tp3674
a(I6
I6
tp3675
a(I6
I7
tp3676
a(I6
I8
tp3677
a(I7
I4
tp3678
a(I7
I5
tp3679
a(I7
I6
tp3680
a(I7
I7
tp3681
a(I7
I8
tp3682
a(I8
I3
tp3683
a(I8
I4
tp3684
a(I8
I5
tp3685
a(I8
I6
tp3686
a(I8
I7
tp3687
a(I8
I8
tp3688
a(I8
I9
tp3689
a(I9
I4
tp3690
a(I9
I5
tp3691
a(I9
I6
tp3692
a(I9
I7
tp3693
a(I9
I8
tp3694
a(I10
I4
tp3695
a(I10
I5
tp3696
a(I10
I6
tp3697
a(I10
I7
tp3698
a(I10
I8
tp3699
a(I11
I6
tp3700
asg32
g305
sg6
I15
sg10
I60
sg306
(lp3701
g308
asg4
I0
sg29
I100
sg30
g309
sg27
g310
sbs(I6
I4
tp3702
(ilibs
_Pellet
p3703
(dp3704
g9
I10
sg26
I0
sg7
Nsg8
I100
sg11
(lp3705
(I3
I4
tp3706
a(I4
I2
tp3707
a(I4
I3
tp3708
a(I4
I4
tp3709
a(I4
I5
tp3710
a(I4
I6
tp3711
a(I5
I2
tp3712
a(I5
I3
tp3713
a(I5
I4
tp3714
a(I5
I5
tp3715
a(I5
I6
tp3716
a(I6
I1
tp3717
a(I6
I2
tp3718
a(I6
I3
tp3719
a(I6
I4
tp3720
a(I6
I5
tp3721
a(I6
I6
tp3722
a(I6
I7
tp3723
a(I7
I2
tp3724
a(I7
I3
tp3725
a(I7
I4
tp3726
a(I7
I5
tp3727
a(I7
I6
tp3728
a(I8
I2
tp3729
a(I8
I3
tp3730
a(I8
I4
tp3731
a(I8
I5
tp3732
a(I8
I6
tp3733
a(I9
I4
tp3734
asg32
g305
sg6
I15
sg10
I60
sg306
(lp3735
g308
asg4
I0
sg29
I100
sg30
g309
sg27
g310
sbs(I11
I4
tp3736
(ilibs
_Pellet
p3737
(dp3738
g9
I10
sg26
I0
sg7
Nsg8
I100
sg11
(lp3739
(I8
I4
tp3740
a(I9
I2
tp3741
a(I9
I3
tp3742
a(I9
I4
tp3743
a(I9
I5
tp3744
a(I9
I6
tp3745
a(I10
I2
tp3746
a(I10
I3
tp3747
a(I10
I4
tp3748
a(I10
I5
tp3749
a(I10
I6
tp3750
a(I11
I1
tp3751
a(I11
I2
tp3752
a(I11
I3
tp3753
a(I11
I4
tp3754
a(I11
I5
tp3755
a(I11
I6
tp3756
a(I11
I7
tp3757
a(I12
I2
tp3758
a(I12
I3
tp3759
a(I12
I4
tp3760
a(I12
I5
tp3761
a(I12
I6
tp3762
a(I13
I2
tp3763
a(I13
I3
tp3764
a(I13
I4
tp3765
a(I13
I5
tp3766
a(I13
I6
tp3767
a(I14
I4
tp3768
asg32
g305
sg6
I15
sg10
I60
sg306
(lp3769
g308
asg4
I0
sg29
I100
sg30
g309
sg27
g310
sbs(I6
I11
tp3770
(ilibs
_3
p3771
(dp3772
g4
I0
sg9
I20
sg26
I30
sg7
Nsg8
I300
sg6
I100
sg10
I180
sg11
(lp3773
(I0
I5
tp3774
a(I0
I6
tp3775
a(I0
I7
tp3776
a(I0
I8
tp3777
a(I0
I9
tp3778
a(I0
I10
tp3779
a(I0
I11
tp3780
a(I0
I12
tp3781
a(I0
I13
tp3782
a(I0
I14
tp3783
a(I0
I15
tp3784
a(I0
I16
tp3785
a(I0
I17
tp3786
a(I1
I4
tp3787
a(I1
I5
tp3788
a(I1
I6
tp3789
a(I1
I7
tp3790
a(I1
I8
tp3791
a(I1
I9
tp3792
a(I1
I10
tp3793
a(I1
I11
tp3794
a(I1
I12
tp3795
a(I1
I13
tp3796
a(I1
I14
tp3797
a(I1
I15
tp3798
a(I1
I16
tp3799
a(I1
I17
tp3800
a(I1
I18
tp3801
a(I2
I3
tp3802
a(I2
I4
tp3803
a(I2
I5
tp3804
a(I2
I6
tp3805
a(I2
I7
tp3806
a(I2
I8
tp3807
a(I2
I9
tp3808
a(I2
I10
tp3809
a(I2
I11
tp3810
a(I2
I12
tp3811
a(I2
I13
tp3812
a(I2
I14
tp3813
a(I2
I15
tp3814
a(I2
I16
tp3815
a(I2
I17
tp3816
a(I2
I18
tp3817
a(I2
I19
tp3818
a(I3
I3
tp3819
a(I3
I4
tp3820
a(I3
I5
tp3821
a(I3
I6
tp3822
a(I3
I7
tp3823
a(I3
I8
tp3824
a(I3
I9
tp3825
a(I3
I10
tp3826
a(I3
I11
tp3827
a(I3
I12
tp3828
a(I3
I13
tp3829
a(I3
I14
tp3830
a(I3
I15
tp3831
a(I3
I16
tp3832
a(I3
I17
tp3833
a(I3
I18
tp3834
a(I3
I19
tp3835
a(I4
I3
tp3836
a(I4
I4
tp3837
a(I4
I5
tp3838
a(I4
I6
tp3839
a(I4
I7
tp3840
a(I4
I8
tp3841
a(I4
I9
tp3842
a(I4
I10
tp3843
a(I4
I11
tp3844
a(I4
I12
tp3845
a(I4
I13
tp3846
a(I4
I14
tp3847
a(I4
I15
tp3848
a(I4
I16
tp3849
a(I4
I17
tp3850
a(I4
I18
tp3851
a(I4
I19
tp3852
a(I5
I3
tp3853
a(I5
I4
tp3854
a(I5
I5
tp3855
a(I5
I6
tp3856
a(I5
I7
tp3857
a(I5
I8
tp3858
a(I5
I9
tp3859
a(I5
I10
tp3860
a(I5
I11
tp3861
a(I5
I12
tp3862
a(I5
I13
tp3863
a(I5
I14
tp3864
a(I5
I15
tp3865
a(I5
I16
tp3866
a(I5
I17
tp3867
a(I5
I18
tp3868
a(I5
I19
tp3869
a(I6
I2
tp3870
a(I6
I3
tp3871
a(I6
I4
tp3872
a(I6
I5
tp3873
a(I6
I6
tp3874
a(I6
I7
tp3875
a(I6
I8
tp3876
a(I6
I9
tp3877
a(I6
I10
tp3878
a(I6
I11
tp3879
a(I6
I12
tp3880
a(I6
I13
tp3881
a(I6
I14
tp3882
a(I6
I15
tp3883
a(I6
I16
tp3884
a(I6
I17
tp3885
a(I6
I18
tp3886
a(I6
I19
tp3887
a(I7
I3
tp3888
a(I7
I4
tp3889
a(I7
I5
tp3890
a(I7
I6
tp3891
a(I7
I7
tp3892
a(I7
I8
tp3893
a(I7
I9
tp3894
a(I7
I10
tp3895
a(I7
I11
tp3896
a(I7
I12
tp3897
a(I7
I13
tp3898
a(I7
I14
tp3899
a(I7
I15
tp3900
a(I7
I16
tp3901
a(I7
I17
tp3902
a(I7
I18
tp3903
a(I7
I19
tp3904
a(I8
I3
tp3905
a(I8
I4
tp3906
a(I8
I5
tp3907
a(I8
I6
tp3908
a(I8
I7
tp3909
a(I8
I8
tp3910
a(I8
I9
tp3911
a(I8
I10
tp3912
a(I8
I11
tp3913
a(I8
I12
tp3914
a(I8
I13
tp3915
a(I8
I14
tp3916
a(I8
I15
tp3917
a(I8
I16
tp3918
a(I8
I17
tp3919
a(I8
I18
tp3920
a(I8
I19
tp3921
a(I9
I3
tp3922
a(I9
I4
tp3923
a(I9
I5
tp3924
a(I9
I6
tp3925
a(I9
I7
tp3926
a(I9
I8
tp3927
a(I9
I9
tp3928
a(I9
I10
tp3929
a(I9
I11
tp3930
a(I9
I12
tp3931
a(I9
I13
tp3932
a(I9
I14
tp3933
a(I9
I15
tp3934
a(I9
I16
tp3935
a(I9
I17
tp3936
a(I9
I18
tp3937
a(I9
I19
tp3938
a(I10
I3
tp3939
a(I10
I4
tp3940
a(I10
I5
tp3941
a(I10
I6
tp3942
a(I10
I7
tp3943
a(I10
I8
tp3944
a(I10
I9
tp3945
a(I10
I10
tp3946
a(I10
I11
tp3947
a(I10
I12
tp3948
a(I10
I13
tp3949
a(I10
I14
tp3950
a(I10
I15
tp3951
a(I10
I16
tp3952
a(I10
I17
tp3953
a(I10
I18
tp3954
a(I10
I19
tp3955
a(I11
I4
tp3956
a(I11
I5
tp3957
a(I11
I6
tp3958
a(I11
I7
tp3959
a(I11
I8
tp3960
a(I11
I9
tp3961
a(I11
I10
tp3962
a(I11
I11
tp3963
a(I11
I12
tp3964
a(I11
I13
tp3965
a(I11
I14
tp3966
a(I11
I15
tp3967
a(I11
I16
tp3968
a(I11
I17
tp3969
a(I11
I18
tp3970
a(I12
I5
tp3971
a(I12
I6
tp3972
a(I12
I7
tp3973
a(I12
I8
tp3974
a(I12
I9
tp3975
a(I12
I10
tp3976
a(I12
I11
tp3977
a(I12
I12
tp3978
a(I12
I13
tp3979
a(I12
I14
tp3980
a(I12
I15
tp3981
a(I12
I16
tp3982
a(I12
I17
tp3983
a(I13
I6
tp3984
a(I13
I7
tp3985
a(I13
I8
tp3986
a(I13
I9
tp3987
a(I13
I10
tp3988
a(I13
I11
tp3989
a(I13
I12
tp3990
a(I13
I13
tp3991
a(I13
I14
tp3992
a(I13
I15
tp3993
a(I13
I16
tp3994
a(I14
I7
tp3995
a(I14
I8
tp3996
a(I14
I9
tp3997
a(I14
I10
tp3998
a(I14
I11
tp3999
a(I14
I12
tp4000
a(I14
I13
tp4001
a(I14
I14
tp4002
a(I14
I15
tp4003
a(I15
I11
tp4004
asg27
g270
sg29
I300
sg30
g271
sg32
g272
sbs(I5
I17
tp4005
(ilibs
_Pellet
p4006
(dp4007
g9
I10
sg26
I0
sg7
Nsg8
I100
sg11
(lp4008
(I2
I17
tp4009
a(I3
I15
tp4010
a(I3
I16
tp4011
a(I3
I17
tp4012
a(I3
I18
tp4013
a(I3
I19
tp4014
a(I4
I15
tp4015
a(I4
I16
tp4016
a(I4
I17
tp4017
a(I4
I18
tp4018
a(I4
I19
tp4019
a(I5
I14
tp4020
a(I5
I15
tp4021
a(I5
I16
tp4022
a(I5
I17
tp4023
a(I5
I18
tp4024
a(I5
I19
tp4025
a(I6
I15
tp4026
a(I6
I16
tp4027
a(I6
I17
tp4028
a(I6
I18
tp4029
a(I6
I19
tp4030
a(I7
I15
tp4031
a(I7
I16
tp4032
a(I7
I17
tp4033
a(I7
I18
tp4034
a(I7
I19
tp4035
a(I8
I17
tp4036
asg32
g305
sg6
I15
sg10
I60
sg306
(lp4037
g308
asg4
I0
sg29
I100
sg30
g309
sg27
g310
sbs(I0
I18
tp4038
(ilibs
_Pellet
p4039
(dp4040
g9
I10
sg26
I0
sg7
Nsg8
I100
sg11
(lp4041
(I0
I15
tp4042
a(I0
I16
tp4043
a(I0
I17
tp4044
a(I0
I18
tp4045
a(I0
I19
tp4046
a(I1
I16
tp4047
a(I1
I17
tp4048
a(I1
I18
tp4049
a(I1
I19
tp4050
a(I2
I16
tp4051
a(I2
I17
tp4052
a(I2
I18
tp4053
a(I2
I19
tp4054
a(I3
I18
tp4055
asg32
g305
sg6
I15
sg10
I60
sg306
(lp4056
g308
asg4
I0
sg29
I100
sg30
g309
sg27
g310
sbs(I13
I6
tp4057
(ilibs
_Pellet
p4058
(dp4059
g9
I10
sg26
I0
sg7
Nsg8
I100
sg11
(lp4060
(I10
I6
tp4061
a(I11
I4
tp4062
a(I11
I5
tp4063
a(I11
I6
tp4064
a(I11
I7
tp4065
a(I11
I8
tp4066
a(I12
I4
tp4067
a(I12
I5
tp4068
a(I12
I6
tp4069
a(I12
I7
tp4070
a(I12
I8
tp4071
a(I13
I3
tp4072
a(I13
I4
tp4073
a(I13
I5
tp4074
a(I13
I6
tp4075
a(I13
I7
tp4076
a(I13
I8
tp4077
a(I13
I9
tp4078
a(I14
I4
tp4079
a(I14
I5
tp4080
a(I14
I6
tp4081
a(I14
I7
tp4082
a(I14
I8
tp4083
a(I15
I4
tp4084
a(I15
I5
tp4085
a(I15
I6
tp4086
a(I15
I7
tp4087
a(I15
I8
tp4088
a(I16
I6
tp4089
asg32
g305
sg6
I15
sg10
I60
sg306
(lp4090
g308
asg4
I0
sg29
I100
sg30
g309
sg27
g310
sbs(I12
I18
tp4091
(ilibs
_Pellet
p4092
(dp4093
g9
I10
sg26
I0
sg7
Nsg8
I100
sg11
(lp4094
(I9
I18
tp4095
a(I10
I16
tp4096
a(I10
I17
tp4097
a(I10
I18
tp4098
a(I10
I19
tp4099
a(I11
I16
tp4100
a(I11
I17
tp4101
a(I11
I18
tp4102
a(I11
I19
tp4103
a(I12
I15
tp4104
a(I12
I16
tp4105
a(I12
I17
tp4106
a(I12
I18
tp4107
a(I12
I19
tp4108
a(I13
I16
tp4109
a(I13
I17
tp4110
a(I13
I18
tp4111
a(I13
I19
tp4112
a(I14
I16
tp4113
a(I14
I17
tp4114
a(I14
I18
tp4115
a(I14
I19
tp4116
a(I15
I18
tp4117
asg32
g305
sg6
I15
sg10
I60
sg306
(lp4118
g308
asg4
I0
sg29
I100
sg30
g309
sg27
g310
sbs(I18
I6
tp4119
(ilibs
_Pellet
p4120
(dp4121
g9
I10
sg26
I0
sg7
Nsg8
I100
sg11
(lp4122
(I15
I6
tp4123
a(I16
I4
tp4124
a(I16
I5
tp4125
a(I16
I6
tp4126
a(I16
I7
tp4127
a(I16
I8
tp4128
a(I17
I4
tp4129
a(I17
I5
tp4130
a(I17
I6
tp4131
a(I17
I7
tp4132
a(I17
I8
tp4133
a(I18
I3
tp4134
a(I18
I4
tp4135
a(I18
I5
tp4136
a(I18
I6
tp4137
a(I18
I7
tp4138
a(I18
I8
tp4139
a(I18
I9
tp4140
a(I19
I4
tp4141
a(I19
I5
tp4142
a(I19
I6
tp4143
a(I19
I7
tp4144
a(I19
I8
tp4145
asg32
g305
sg6
I15
sg10
I60
sg306
(lp4146
g308
asg4
I0
sg29
I100
sg30
g309
sg27
g310
sbs(I0
I5
tp4147
(ilibs
_Pellet
p4148
(dp4149
g9
I10
sg26
I0
sg7
Nsg8
I100
sg11
(lp4150
(I0
I2
tp4151
a(I0
I3
tp4152
a(I0
I4
tp4153
a(I0
I5
tp4154
a(I0
I6
tp4155
a(I0
I7
tp4156
a(I0
I8
tp4157
a(I1
I3
tp4158
a(I1
I4
tp4159
a(I1
I5
tp4160
a(I1
I6
tp4161
a(I1
I7
tp4162
a(I2
I3
tp4163
a(I2
I4
tp4164
a(I2
I5
tp4165
a(I2
I6
tp4166
a(I2
I7
tp4167
a(I3
I5
tp4168
asg32
g305
sg6
I15
sg10
I60
sg306
(lp4169
g308
asg4
I0
sg29
I100
sg30
g309
sg27
g310
sbs(I1
I0
tp4170
(ilibs
_Pellet
p4171
(dp4172
g9
I10
sg26
I0
sg7
Nsg8
I100
sg11
(lp4173
(I0
I0
tp4174
a(I0
I1
tp4175
a(I0
I2
tp4176
a(I1
I0
tp4177
a(I1
I1
tp4178
a(I1
I2
tp4179
a(I1
I3
tp4180
a(I2
I0
tp4181
a(I2
I1
tp4182
a(I2
I2
tp4183
a(I3
I0
tp4184
a(I3
I1
tp4185
a(I3
I2
tp4186
a(I4
I0
tp4187
asg32
g305
sg6
I15
sg10
I60
sg306
(lp4188
g308
asg4
I0
sg29
I100
sg30
g309
sg27
g310
sbs(I0
I8
tp4189
(ilibs
_Pellet
p4190
(dp4191
g9
I10
sg26
I0
sg7
Nsg8
I100
sg11
(lp4192
(I0
I5
tp4193
a(I0
I6
tp4194
a(I0
I7
tp4195
a(I0
I8
tp4196
a(I0
I9
tp4197
a(I0
I10
tp4198
a(I0
I11
tp4199
a(I1
I6
tp4200
a(I1
I7
tp4201
a(I1
I8
tp4202
a(I1
I9
tp4203
a(I1
I10
tp4204
a(I2
I6
tp4205
a(I2
I7
tp4206
a(I2
I8
tp4207
a(I2
I9
tp4208
a(I2
I10
tp4209
a(I3
I8
tp4210
asg32
g305
sg6
I15
sg10
I60
sg306
(lp4211
g308
asg4
I0
sg29
I100
sg30
g309
sg27
g310
sbs(I4
I11
tp4212
(ilibs
_Pellet
p4213
(dp4214
g9
I10
sg26
I0
sg7
Nsg8
I100
sg11
(lp4215
(I1
I11
tp4216
a(I2
I9
tp4217
a(I2
I10
tp4218
a(I2
I11
tp4219
a(I2
I12
tp4220
a(I2
I13
tp4221
a(I3
I9
tp4222
a(I3
I10
tp4223
a(I3
I11
tp4224
a(I3
I12
tp4225
a(I3
I13
tp4226
a(I4
I8
tp4227
a(I4
I9
tp4228
a(I4
I10
tp4229
a(I4
I11
tp4230
a(I4
I12
tp4231
a(I4
I13
tp4232
a(I4
I14
tp4233
a(I5
I9
tp4234
a(I5
I10
tp4235
a(I5
I11
tp4236
a(I5
I12
tp4237
a(I5
I13
tp4238
a(I6
I9
tp4239
a(I6
I10
tp4240
a(I6
I11
tp4241
a(I6
I12
tp4242
a(I6
I13
tp4243
a(I7
I11
tp4244
asg32
g305
sg6
I15
sg10
I60
sg306
(lp4245
g308
asg4
I0
sg29
I100
sg30
g309
sg27
g310
sbs(I2
I7
tp4246
(ilibs
_Pellet
p4247
(dp4248
g9
I10
sg26
I0
sg7
Nsg8
I100
sg11
(lp4249
(I0
I5
tp4250
a(I0
I6
tp4251
a(I0
I7
tp4252
a(I0
I8
tp4253
a(I0
I9
tp4254
a(I1
I5
tp4255
a(I1
I6
tp4256
a(I1
I7
tp4257
a(I1
I8
tp4258
a(I1
I9
tp4259
a(I2
I4
tp4260
a(I2
I5
tp4261
a(I2
I6
tp4262
a(I2
I7
tp4263
a(I2
I8
tp4264
a(I2
I9
tp4265
a(I2
I10
tp4266
a(I3
I5
tp4267
a(I3
I6
tp4268
a(I3
I7
tp4269
a(I3
I8
tp4270
a(I3
I9
tp4271
a(I4
I5
tp4272
a(I4
I6
tp4273
a(I4
I7
tp4274
a(I4
I8
tp4275
a(I4
I9
tp4276
a(I5
I7
tp4277
asg32
g305
sg6
I15
sg10
I60
sg306
(lp4278
g308
asg4
I0
sg29
I100
sg30
g309
sg27
g310
sbs(I4
I6
tp4279
(ilibs
_Pellet
p4280
(dp4281
g9
I10
sg26
I0
sg7
Nsg8
I100
sg11
(lp4282
(I1
I6
tp4283
a(I2
I4
tp4284
a(I2
I5
tp4285
a(I2
I6
tp4286
a(I2
I7
tp4287
a(I2
I8
tp4288
a(I3
I4
tp4289
a(I3
I5
tp4290
a(I3
I6
tp4291
a(I3
I7
tp4292
a(I3
I8
tp4293
a(I4
I3
tp4294
a(I4
I4
tp4295
a(I4
I5
tp4296
a(I4
I6
tp4297
a(I4
I7
tp4298
a(I4
I8
tp4299
a(I4
I9
tp4300
a(I5
I4
tp4301
a(I5
I5
tp4302
a(I5
I6
tp4303
a(I5
I7
tp4304
a(I5
I8
tp4305
a(I6
I4
tp4306
a(I6
I5
tp4307
a(I6
I6
tp4308
a(I6
I7
tp4309
a(I6
I8
tp4310
a(I7
I6
tp4311
asg32
g305
sg6
I15
sg10
I60
sg306
(lp4312
g308
asg4
I0
sg29
I100
sg30
g309
sg27
g310
sbs(I10
I10
tp4313
(ilibs
_4
p4314
(dp4315
g4
I0
sg5
I01
sg6
I200
sg7
Nsg8
I300
sg9
I40
sg10
I40
sg11
(lp4316
(I8
I10
tp4317
a(I9
I9
tp4318
a(I9
I10
tp4319
a(I9
I11
tp4320
a(I10
I8
tp4321
a(I10
I9
tp4322
a(I10
I10
tp4323
a(I10
I11
tp4324
a(I10
I12
tp4325
a(I11
I9
tp4326
a(I11
I10
tp4327
a(I11
I11
tp4328
a(I12
I10
tp4329
asg26
I30
sg27
g28
sg29
I300
sg30
g31
sg32
g33
sbs(I9
I2
tp4330
(ilibs
_Pellet
p4331
(dp4332
g9
I10
sg26
I0
sg7
Nsg8
I100
sg11
(lp4333
(I6
I2
tp4334
a(I7
I0
tp4335
a(I7
I1
tp4336
a(I7
I2
tp4337
a(I7
I3
tp4338
a(I7
I4
tp4339
a(I8
I0
tp4340
a(I8
I1
tp4341
a(I8
I2
tp4342
a(I8
I3
tp4343
a(I8
I4
tp4344
a(I9
I0
tp4345
a(I9
I1
tp4346
a(I9
I2
tp4347
a(I9
I3
tp4348
a(I9
I4
tp4349
a(I9
I5
tp4350
a(I10
I0
tp4351
a(I10
I1
tp4352
a(I10
I2
tp4353
a(I10
I3
tp4354
a(I10
I4
tp4355
a(I11
I0
tp4356
a(I11
I1
tp4357
a(I11
I2
tp4358
a(I11
I3
tp4359
a(I11
I4
tp4360
a(I12
I2
tp4361
asg32
g305
sg6
I15
sg10
I60
sg306
(lp4362
g308
asg4
I0
sg29
I100
sg30
g309
sg27
g310
sbs(I4
I17
tp4363
(ilibs
_Pellet
p4364
(dp4365
g9
I10
sg26
I0
sg7
Nsg8
I100
sg11
(lp4366
(I1
I17
tp4367
a(I2
I15
tp4368
a(I2
I16
tp4369
a(I2
I17
tp4370
a(I2
I18
tp4371
a(I2
I19
tp4372
a(I3
I15
tp4373
a(I3
I16
tp4374
a(I3
I17
tp4375
a(I3
I18
tp4376
a(I3
I19
tp4377
a(I4
I14
tp4378
a(I4
I15
tp4379
a(I4
I16
tp4380
a(I4
I17
tp4381
a(I4
I18
tp4382
a(I4
I19
tp4383
a(I5
I15
tp4384
a(I5
I16
tp4385
a(I5
I17
tp4386
a(I5
I18
tp4387
a(I5
I19
tp4388
a(I6
I15
tp4389
a(I6
I16
tp4390
a(I6
I17
tp4391
a(I6
I18
tp4392
a(I6
I19
tp4393
a(I7
I17
tp4394
asg32
g305
sg6
I15
sg10
I60
sg306
(lp4395
g308
asg4
I0
sg29
I100
sg30
g309
sg27
g310
sbs(I11
I3
tp4396
(ilibs
_Pellet
p4397
(dp4398
g9
I10
sg26
I0
sg7
Nsg8
I100
sg11
(lp4399
(I8
I3
tp4400
a(I9
I1
tp4401
a(I9
I2
tp4402
a(I9
I3
tp4403
a(I9
I4
tp4404
a(I9
I5
tp4405
a(I10
I1
tp4406
a(I10
I2
tp4407
a(I10
I3
tp4408
a(I10
I4
tp4409
a(I10
I5
tp4410
a(I11
I0
tp4411
a(I11
I1
tp4412
a(I11
I2
tp4413
a(I11
I3
tp4414
a(I11
I4
tp4415
a(I11
I5
tp4416
a(I11
I6
tp4417
a(I12
I1
tp4418
a(I12
I2
tp4419
a(I12
I3
tp4420
a(I12
I4
tp4421
a(I12
I5
tp4422
a(I13
I1
tp4423
a(I13
I2
tp4424
a(I13
I3
tp4425
a(I13
I4
tp4426
a(I13
I5
tp4427
a(I14
I3
tp4428
asg32
g305
sg6
I15
sg10
I60
sg306
(lp4429
g308
asg4
I0
sg29
I100
sg30
g309
sg27
g310
sbs(I1
I19
tp4430
(ilibs
_Pellet
p4431
(dp4432
g9
I10
sg26
I0
sg7
Nsg8
I100
sg11
(lp4433
(I0
I17
tp4434
a(I0
I18
tp4435
a(I0
I19
tp4436
a(I1
I16
tp4437
a(I1
I17
tp4438
a(I1
I18
tp4439
a(I1
I19
tp4440
a(I2
I17
tp4441
a(I2
I18
tp4442
a(I2
I19
tp4443
a(I3
I17
tp4444
a(I3
I18
tp4445
a(I3
I19
tp4446
a(I4
I19
tp4447
asg32
g305
sg6
I15
sg10
I60
sg306
(lp4448
g308
asg4
I0
sg29
I100
sg30
g309
sg27
g310
sbs(I6
I19
tp4449
(ilibs
_Pellet
p4450
(dp4451
g9
I10
sg26
I0
sg7
Nsg8
I100
sg11
(lp4452
(I3
I19
tp4453
a(I4
I17
tp4454
a(I4
I18
tp4455
a(I4
I19
tp4456
a(I5
I17
tp4457
a(I5
I18
tp4458
a(I5
I19
tp4459
a(I6
I16
tp4460
a(I6
I17
tp4461
a(I6
I18
tp4462
a(I6
I19
tp4463
a(I7
I17
tp4464
a(I7
I18
tp4465
a(I7
I19
tp4466
a(I8
I17
tp4467
a(I8
I18
tp4468
a(I8
I19
tp4469
a(I9
I19
tp4470
asg32
g305
sg6
I15
sg10
I60
sg306
(lp4471
g308
asg4
I0
sg29
I100
sg30
g309
sg27
g310
sbs(I7
I17
tp4472
(ilibs
_Pellet
p4473
(dp4474
g9
I10
sg26
I0
sg7
Nsg8
I100
sg11
(lp4475
(I4
I17
tp4476
a(I5
I15
tp4477
a(I5
I16
tp4478
a(I5
I17
tp4479
a(I5
I18
tp4480
a(I5
I19
tp4481
a(I6
I15
tp4482
a(I6
I16
tp4483
a(I6
I17
tp4484
a(I6
I18
tp4485
a(I6
I19
tp4486
a(I7
I14
tp4487
a(I7
I15
tp4488
a(I7
I16
tp4489
a(I7
I17
tp4490
a(I7
I18
tp4491
a(I7
I19
tp4492
a(I8
I15
tp4493
a(I8
I16
tp4494
a(I8
I17
tp4495
a(I8
I18
tp4496
a(I8
I19
tp4497
a(I9
I15
tp4498
a(I9
I16
tp4499
a(I9
I17
tp4500
a(I9
I18
tp4501
a(I9
I19
tp4502
a(I10
I17
tp4503
asg32
g305
sg6
I15
sg10
I60
sg306
(lp4504
g308
asg4
I0
sg29
I100
sg30
g309
sg27
g310
sbs(I18
I11
tp4505
(ilibs
_Pellet
p4506
(dp4507
g9
I10
sg26
I0
sg7
Nsg8
I100
sg11
(lp4508
(I15
I11
tp4509
a(I16
I9
tp4510
a(I16
I10
tp4511
a(I16
I11
tp4512
a(I16
I12
tp4513
a(I16
I13
tp4514
a(I17
I9
tp4515
a(I17
I10
tp4516
a(I17
I11
tp4517
a(I17
I12
tp4518
a(I17
I13
tp4519
a(I18
I8
tp4520
a(I18
I9
tp4521
a(I18
I10
tp4522
a(I18
I11
tp4523
a(I18
I12
tp4524
a(I18
I13
tp4525
a(I18
I14
tp4526
a(I19
I9
tp4527
a(I19
I10
tp4528
a(I19
I11
tp4529
a(I19
I12
tp4530
a(I19
I13
tp4531
asg32
g305
sg6
I15
sg10
I60
sg306
(lp4532
g308
asg4
I0
sg29
I100
sg30
g309
sg27
g310
sbs(I0
I2
tp4533
(ilibs
_Pellet
p4534
(dp4535
g9
I10
sg26
I0
sg7
Nsg8
I100
sg11
(lp4536
(I0
I0
tp4537
a(I0
I1
tp4538
a(I0
I2
tp4539
a(I0
I3
tp4540
a(I0
I4
tp4541
a(I0
I5
tp4542
a(I1
I0
tp4543
a(I1
I1
tp4544
a(I1
I2
tp4545
a(I1
I3
tp4546
a(I1
I4
tp4547
a(I2
I0
tp4548
a(I2
I1
tp4549
a(I2
I2
tp4550
a(I2
I3
tp4551
a(I2
I4
tp4552
a(I3
I2
tp4553
asg32
g305
sg6
I15
sg10
I60
sg306
(lp4554
g308
asg4
I0
sg29
I100
sg30
g309
sg27
g310
sbs(I3
I15
tp4555
(ilibs
_Pellet
p4556
(dp4557
g9
I10
sg26
I0
sg7
Nsg8
I100
sg11
(lp4558
(I0
I15
tp4559
a(I1
I13
tp4560
a(I1
I14
tp4561
a(I1
I15
tp4562
a(I1
I16
tp4563
a(I1
I17
tp4564
a(I2
I13
tp4565
a(I2
I14
tp4566
a(I2
I15
tp4567
a(I2
I16
tp4568
a(I2
I17
tp4569
a(I3
I12
tp4570
a(I3
I13
tp4571
a(I3
I14
tp4572
a(I3
I15
tp4573
a(I3
I16
tp4574
a(I3
I17
tp4575
a(I3
I18
tp4576
a(I4
I13
tp4577
a(I4
I14
tp4578
a(I4
I15
tp4579
a(I4
I16
tp4580
a(I4
I17
tp4581
a(I5
I13
tp4582
a(I5
I14
tp4583
a(I5
I15
tp4584
a(I5
I16
tp4585
a(I5
I17
tp4586
a(I6
I15
tp4587
asg32
g305
sg6
I15
sg10
I60
sg306
(lp4588
g308
asg4
I0
sg29
I100
sg30
g309
sg27
g310
sbs(I14
I18
tp4589
(ilibs
_Pellet
p4590
(dp4591
g9
I10
sg26
I0
sg7
Nsg8
I100
sg11
(lp4592
(I11
I18
tp4593
a(I12
I16
tp4594
a(I12
I17
tp4595
a(I12
I18
tp4596
a(I12
I19
tp4597
a(I13
I16
tp4598
a(I13
I17
tp4599
a(I13
I18
tp4600
a(I13
I19
tp4601
a(I14
I15
tp4602
a(I14
I16
tp4603
a(I14
I17
tp4604
a(I14
I18
tp4605
a(I14
I19
tp4606
a(I15
I16
tp4607
a(I15
I17
tp4608
a(I15
I18
tp4609
a(I15
I19
tp4610
a(I16
I16
tp4611
a(I16
I17
tp4612
a(I16
I18
tp4613
a(I16
I19
tp4614
a(I17
I18
tp4615
asg32
g305
sg6
I15
sg10
I60
sg306
(lp4616
g308
asg4
I0
sg29
I100
sg30
g309
sg27
g310
sbs(I8
I13
tp4617
(ilibs
_Aqua
p4618
(dp4619
g9
I5
sg26
I30
sg7
Nsg8
I70
sg6
I30
sg10
I120
sg11
(lp4620
(I2
I13
tp4621
a(I3
I10
tp4622
a(I3
I11
tp4623
a(I3
I12
tp4624
a(I3
I13
tp4625
a(I3
I14
tp4626
a(I3
I15
tp4627
a(I3
I16
tp4628
a(I4
I9
tp4629
a(I4
I10
tp4630
a(I4
I11
tp4631
a(I4
I12
tp4632
a(I4
I13
tp4633
a(I4
I14
tp4634
a(I4
I15
tp4635
a(I4
I16
tp4636
a(I4
I17
tp4637
a(I5
I8
tp4638
a(I5
I9
tp4639
a(I5
I10
tp4640
a(I5
I11
tp4641
a(I5
I12
tp4642
a(I5
I13
tp4643
a(I5
I14
tp4644
a(I5
I15
tp4645
a(I5
I16
tp4646
a(I5
I17
tp4647
a(I5
I18
tp4648
a(I6
I8
tp4649
a(I6
I9
tp4650
a(I6
I10
tp4651
a(I6
I11
tp4652
a(I6
I12
tp4653
a(I6
I13
tp4654
a(I6
I14
tp4655
a(I6
I15
tp4656
a(I6
I16
tp4657
a(I6
I17
tp4658
a(I6
I18
tp4659
a(I7
I8
tp4660
a(I7
I9
tp4661
a(I7
I10
tp4662
a(I7
I11
tp4663
a(I7
I12
tp4664
a(I7
I13
tp4665
a(I7
I14
tp4666
a(I7
I15
tp4667
a(I7
I16
tp4668
a(I7
I17
tp4669
a(I7
I18
tp4670
a(I8
I7
tp4671
a(I8
I8
tp4672
a(I8
I9
tp4673
a(I8
I10
tp4674
a(I8
I11
tp4675
a(I8
I12
tp4676
a(I8
I13
tp4677
a(I8
I14
tp4678
a(I8
I15
tp4679
a(I8
I16
tp4680
a(I8
I17
tp4681
a(I8
I18
tp4682
a(I8
I19
tp4683
a(I9
I8
tp4684
a(I9
I9
tp4685
a(I9
I10
tp4686
a(I9
I11
tp4687
a(I9
I12
tp4688
a(I9
I13
tp4689
a(I9
I14
tp4690
a(I9
I15
tp4691
a(I9
I16
tp4692
a(I9
I17
tp4693
a(I9
I18
tp4694
a(I10
I8
tp4695
a(I10
I9
tp4696
a(I10
I10
tp4697
a(I10
I11
tp4698
a(I10
I12
tp4699
a(I10
I13
tp4700
a(I10
I14
tp4701
a(I10
I15
tp4702
a(I10
I16
tp4703
a(I10
I17
tp4704
a(I10
I18
tp4705
a(I11
I8
tp4706
a(I11
I9
tp4707
a(I11
I10
tp4708
a(I11
I11
tp4709
a(I11
I12
tp4710
a(I11
I13
tp4711
a(I11
I14
tp4712
a(I11
I15
tp4713
a(I11
I16
tp4714
a(I11
I17
tp4715
a(I11
I18
tp4716
a(I12
I9
tp4717
a(I12
I10
tp4718
a(I12
I11
tp4719
a(I12
I12
tp4720
a(I12
I13
tp4721
a(I12
I14
tp4722
a(I12
I15
tp4723
a(I12
I16
tp4724
a(I12
I17
tp4725
a(I13
I10
tp4726
a(I13
I11
tp4727
a(I13
I12
tp4728
a(I13
I13
tp4729
a(I13
I14
tp4730
a(I13
I15
tp4731
a(I13
I16
tp4732
a(I14
I13
tp4733
asg27
g1685
sg4
I0
sg29
I70
sg30
g1686
sg32
g1687
sbs(I4
I8
tp4734
(ilibs
_4
p4735
(dp4736
g4
I0
sg5
I01
sg6
I200
sg7
Nsg8
I300
sg9
I40
sg10
I40
sg11
(lp4737
(I2
I8
tp4738
a(I3
I7
tp4739
a(I3
I8
tp4740
a(I3
I9
tp4741
a(I4
I6
tp4742
a(I4
I7
tp4743
a(I4
I8
tp4744
a(I4
I9
tp4745
a(I4
I10
tp4746
a(I5
I7
tp4747
a(I5
I8
tp4748
a(I5
I9
tp4749
a(I6
I8
tp4750
asg26
I30
sg27
g28
sg29
I300
sg30
g31
sg32
g33
sbs(I3
I0
tp4751
(ilibs
_Pellet
p4752
(dp4753
g9
I10
sg26
I0
sg7
Nsg8
I100
sg11
(lp4754
(I0
I0
tp4755
a(I1
I0
tp4756
a(I1
I1
tp4757
a(I1
I2
tp4758
a(I2
I0
tp4759
a(I2
I1
tp4760
a(I2
I2
tp4761
a(I3
I0
tp4762
a(I3
I1
tp4763
a(I3
I2
tp4764
a(I3
I3
tp4765
a(I4
I0
tp4766
a(I4
I1
tp4767
a(I4
I2
tp4768
a(I5
I0
tp4769
a(I5
I1
tp4770
a(I5
I2
tp4771
a(I6
I0
tp4772
asg32
g305
sg6
I15
sg10
I60
sg306
(lp4773
g308
asg4
I0
sg29
I100
sg30
g309
sg27
g310
sbs(I2
I8
tp4774
(ilibs
_Pellet
p4775
(dp4776
g9
I10
sg26
I0
sg7
Nsg8
I100
sg11
(lp4777
(I0
I6
tp4778
a(I0
I7
tp4779
a(I0
I8
tp4780
a(I0
I9
tp4781
a(I0
I10
tp4782
a(I1
I6
tp4783
a(I1
I7
tp4784
a(I1
I8
tp4785
a(I1
I9
tp4786
a(I1
I10
tp4787
a(I2
I5
tp4788
a(I2
I6
tp4789
a(I2
I7
tp4790
a(I2
I8
tp4791
a(I2
I9
tp4792
a(I2
I10
tp4793
a(I2
I11
tp4794
a(I3
I6
tp4795
a(I3
I7
tp4796
a(I3
I8
tp4797
a(I3
I9
tp4798
a(I3
I10
tp4799
a(I4
I6
tp4800
a(I4
I7
tp4801
a(I4
I8
tp4802
a(I4
I9
tp4803
a(I4
I10
tp4804
a(I5
I8
tp4805
asg32
g305
sg6
I15
sg10
I60
sg306
(lp4806
g308
asg4
I0
sg29
I100
sg30
g309
sg27
g310
sbs(I9
I8
tp4807
(ilibs
_3
p4808
(dp4809
g4
I0
sg9
I20
sg26
I30
sg7
Nsg8
I300
sg6
I100
sg10
I180
sg11
(lp4810
(I0
I8
tp4811
a(I1
I4
tp4812
a(I1
I5
tp4813
a(I1
I6
tp4814
a(I1
I7
tp4815
a(I1
I8
tp4816
a(I1
I9
tp4817
a(I1
I10
tp4818
a(I1
I11
tp4819
a(I1
I12
tp4820
a(I2
I3
tp4821
a(I2
I4
tp4822
a(I2
I5
tp4823
a(I2
I6
tp4824
a(I2
I7
tp4825
a(I2
I8
tp4826
a(I2
I9
tp4827
a(I2
I10
tp4828
a(I2
I11
tp4829
a(I2
I12
tp4830
a(I2
I13
tp4831
a(I3
I2
tp4832
a(I3
I3
tp4833
a(I3
I4
tp4834
a(I3
I5
tp4835
a(I3
I6
tp4836
a(I3
I7
tp4837
a(I3
I8
tp4838
a(I3
I9
tp4839
a(I3
I10
tp4840
a(I3
I11
tp4841
a(I3
I12
tp4842
a(I3
I13
tp4843
a(I3
I14
tp4844
a(I4
I1
tp4845
a(I4
I2
tp4846
a(I4
I3
tp4847
a(I4
I4
tp4848
a(I4
I5
tp4849
a(I4
I6
tp4850
a(I4
I7
tp4851
a(I4
I8
tp4852
a(I4
I9
tp4853
a(I4
I10
tp4854
a(I4
I11
tp4855
a(I4
I12
tp4856
a(I4
I13
tp4857
a(I4
I14
tp4858
a(I4
I15
tp4859
a(I5
I0
tp4860
a(I5
I1
tp4861
a(I5
I2
tp4862
a(I5
I3
tp4863
a(I5
I4
tp4864
a(I5
I5
tp4865
a(I5
I6
tp4866
a(I5
I7
tp4867
a(I5
I8
tp4868
a(I5
I9
tp4869
a(I5
I10
tp4870
a(I5
I11
tp4871
a(I5
I12
tp4872
a(I5
I13
tp4873
a(I5
I14
tp4874
a(I5
I15
tp4875
a(I5
I16
tp4876
a(I6
I0
tp4877
a(I6
I1
tp4878
a(I6
I2
tp4879
a(I6
I3
tp4880
a(I6
I4
tp4881
a(I6
I5
tp4882
a(I6
I6
tp4883
a(I6
I7
tp4884
a(I6
I8
tp4885
a(I6
I9
tp4886
a(I6
I10
tp4887
a(I6
I11
tp4888
a(I6
I12
tp4889
a(I6
I13
tp4890
a(I6
I14
tp4891
a(I6
I15
tp4892
a(I6
I16
tp4893
a(I7
I0
tp4894
a(I7
I1
tp4895
a(I7
I2
tp4896
a(I7
I3
tp4897
a(I7
I4
tp4898
a(I7
I5
tp4899
a(I7
I6
tp4900
a(I7
I7
tp4901
a(I7
I8
tp4902
a(I7
I9
tp4903
a(I7
I10
tp4904
a(I7
I11
tp4905
a(I7
I12
tp4906
a(I7
I13
tp4907
a(I7
I14
tp4908
a(I7
I15
tp4909
a(I7
I16
tp4910
a(I8
I0
tp4911
a(I8
I1
tp4912
a(I8
I2
tp4913
a(I8
I3
tp4914
a(I8
I4
tp4915
a(I8
I5
tp4916
a(I8
I6
tp4917
a(I8
I7
tp4918
a(I8
I8
tp4919
a(I8
I9
tp4920
a(I8
I10
tp4921
a(I8
I11
tp4922
a(I8
I12
tp4923
a(I8
I13
tp4924
a(I8
I14
tp4925
a(I8
I15
tp4926
a(I8
I16
tp4927
a(I9
I0
tp4928
a(I9
I1
tp4929
a(I9
I2
tp4930
a(I9
I3
tp4931
a(I9
I4
tp4932
a(I9
I5
tp4933
a(I9
I6
tp4934
a(I9
I7
tp4935
a(I9
I8
tp4936
a(I9
I9
tp4937
a(I9
I10
tp4938
a(I9
I11
tp4939
a(I9
I12
tp4940
a(I9
I13
tp4941
a(I9
I14
tp4942
a(I9
I15
tp4943
a(I9
I16
tp4944
a(I9
I17
tp4945
a(I10
I0
tp4946
a(I10
I1
tp4947
a(I10
I2
tp4948
a(I10
I3
tp4949
a(I10
I4
tp4950
a(I10
I5
tp4951
a(I10
I6
tp4952
a(I10
I7
tp4953
a(I10
I8
tp4954
a(I10
I9
tp4955
a(I10
I10
tp4956
a(I10
I11
tp4957
a(I10
I12
tp4958
a(I10
I13
tp4959
a(I10
I14
tp4960
a(I10
I15
tp4961
a(I10
I16
tp4962
a(I11
I0
tp4963
a(I11
I1
tp4964
a(I11
I2
tp4965
a(I11
I3
tp4966
a(I11
I4
tp4967
a(I11
I5
tp4968
a(I11
I6
tp4969
a(I11
I7
tp4970
a(I11
I8
tp4971
a(I11
I9
tp4972
a(I11
I10
tp4973
a(I11
I11
tp4974
a(I11
I12
tp4975
a(I11
I13
tp4976
a(I11
I14
tp4977
a(I11
I15
tp4978
a(I11
I16
tp4979
a(I12
I0
tp4980
a(I12
I1
tp4981
a(I12
I2
tp4982
a(I12
I3
tp4983
a(I12
I4
tp4984
a(I12
I5
tp4985
a(I12
I6
tp4986
a(I12
I7
tp4987
a(I12
I8
tp4988
a(I12
I9
tp4989
a(I12
I10
tp4990
a(I12
I11
tp4991
a(I12
I12
tp4992
a(I12
I13
tp4993
a(I12
I14
tp4994
a(I12
I15
tp4995
a(I12
I16
tp4996
a(I13
I0
tp4997
a(I13
I1
tp4998
a(I13
I2
tp4999
a(I13
I3
tp5000
a(I13
I4
tp5001
a(I13
I5
tp5002
a(I13
I6
tp5003
a(I13
I7
tp5004
a(I13
I8
tp5005
a(I13
I9
tp5006
a(I13
I10
tp5007
a(I13
I11
tp5008
a(I13
I12
tp5009
a(I13
I13
tp5010
a(I13
I14
tp5011
a(I13
I15
tp5012
a(I13
I16
tp5013
a(I14
I1
tp5014
a(I14
I2
tp5015
a(I14
I3
tp5016
a(I14
I4
tp5017
a(I14
I5
tp5018
a(I14
I6
tp5019
a(I14
I7
tp5020
a(I14
I8
tp5021
a(I14
I9
tp5022
a(I14
I10
tp5023
a(I14
I11
tp5024
a(I14
I12
tp5025
a(I14
I13
tp5026
a(I14
I14
tp5027
a(I14
I15
tp5028
a(I15
I2
tp5029
a(I15
I3
tp5030
a(I15
I4
tp5031
a(I15
I5
tp5032
a(I15
I6
tp5033
a(I15
I7
tp5034
a(I15
I8
tp5035
a(I15
I9
tp5036
a(I15
I10
tp5037
a(I15
I11
tp5038
a(I15
I12
tp5039
a(I15
I13
tp5040
a(I15
I14
tp5041
a(I16
I3
tp5042
a(I16
I4
tp5043
a(I16
I5
tp5044
a(I16
I6
tp5045
a(I16
I7
tp5046
a(I16
I8
tp5047
a(I16
I9
tp5048
a(I16
I10
tp5049
a(I16
I11
tp5050
a(I16
I12
tp5051
a(I16
I13
tp5052
a(I17
I4
tp5053
a(I17
I5
tp5054
a(I17
I6
tp5055
a(I17
I7
tp5056
a(I17
I8
tp5057
a(I17
I9
tp5058
a(I17
I10
tp5059
a(I17
I11
tp5060
a(I17
I12
tp5061
a(I18
I8
tp5062
asg27
g270
sg29
I300
sg30
g271
sg32
g272
sbs(I8
I0
tp5063
(ilibs
_Pellet
p5064
(dp5065
g9
I10
sg26
I0
sg7
Nsg8
I100
sg11
(lp5066
(I5
I0
tp5067
a(I6
I0
tp5068
a(I6
I1
tp5069
a(I6
I2
tp5070
a(I7
I0
tp5071
a(I7
I1
tp5072
a(I7
I2
tp5073
a(I8
I0
tp5074
a(I8
I1
tp5075
a(I8
I2
tp5076
a(I8
I3
tp5077
a(I9
I0
tp5078
a(I9
I1
tp5079
a(I9
I2
tp5080
a(I10
I0
tp5081
a(I10
I1
tp5082
a(I10
I2
tp5083
a(I11
I0
tp5084
asg32
g305
sg6
I15
sg10
I60
sg306
(lp5085
g308
asg4
I0
sg29
I100
sg30
g309
sg27
g310
sbs(I5
I13
tp5086
(ilibs
_Pellet
p5087
(dp5088
g9
I10
sg26
I0
sg7
Nsg8
I100
sg11
(lp5089
(I2
I13
tp5090
a(I3
I11
tp5091
a(I3
I12
tp5092
a(I3
I13
tp5093
a(I3
I14
tp5094
a(I3
I15
tp5095
a(I4
I11
tp5096
a(I4
I12
tp5097
a(I4
I13
tp5098
a(I4
I14
tp5099
a(I4
I15
tp5100
a(I5
I10
tp5101
a(I5
I11
tp5102
a(I5
I12
tp5103
a(I5
I13
tp5104
a(I5
I14
tp5105
a(I5
I15
tp5106
a(I5
I16
tp5107
a(I6
I11
tp5108
a(I6
I12
tp5109
a(I6
I13
tp5110
a(I6
I14
tp5111
a(I6
I15
tp5112
a(I7
I11
tp5113
a(I7
I12
tp5114
a(I7
I13
tp5115
a(I7
I14
tp5116
a(I7
I15
tp5117
a(I8
I13
tp5118
asg32
g305
sg6
I15
sg10
I60
sg306
(lp5119
g308
asg4
I0
sg29
I100
sg30
g309
sg27
g310
sbs(I10
I15
tp5120
(ilibs
_Pellet
p5121
(dp5122
g9
I10
sg26
I0
sg7
Nsg8
I100
sg11
(lp5123
(I7
I15
tp5124
a(I8
I13
tp5125
a(I8
I14
tp5126
a(I8
I15
tp5127
a(I8
I16
tp5128
a(I8
I17
tp5129
a(I9
I13
tp5130
a(I9
I14
tp5131
a(I9
I15
tp5132
a(I9
I16
tp5133
a(I9
I17
tp5134
a(I10
I12
tp5135
a(I10
I13
tp5136
a(I10
I14
tp5137
a(I10
I15
tp5138
a(I10
I16
tp5139
a(I10
I17
tp5140
a(I10
I18
tp5141
a(I11
I13
tp5142
a(I11
I14
tp5143
a(I11
I15
tp5144
a(I11
I16
tp5145
a(I11
I17
tp5146
a(I12
I13
tp5147
a(I12
I14
tp5148
a(I12
I15
tp5149
a(I12
I16
tp5150
a(I12
I17
tp5151
a(I13
I15
tp5152
asg32
g305
sg6
I15
sg10
I60
sg306
(lp5153
g308
asg4
I0
sg29
I100
sg30
g309
sg27
g310
sbs(I6
I2
tp5154
(ilibs
_Pellet
p5155
(dp5156
g9
I10
sg26
I0
sg7
Nsg8
I100
sg11
(lp5157
(I3
I2
tp5158
a(I4
I0
tp5159
a(I4
I1
tp5160
a(I4
I2
tp5161
a(I4
I3
tp5162
a(I4
I4
tp5163
a(I5
I0
tp5164
a(I5
I1
tp5165
a(I5
I2
tp5166
a(I5
I3
tp5167
a(I5
I4
tp5168
a(I6
I0
tp5169
a(I6
I1
tp5170
a(I6
I2
tp5171
a(I6
I3
tp5172
a(I6
I4
tp5173
a(I6
I5
tp5174
a(I7
I0
tp5175
a(I7
I1
tp5176
a(I7
I2
tp5177
a(I7
I3
tp5178
a(I7
I4
tp5179
a(I8
I0
tp5180
a(I8
I1
tp5181
a(I8
I2
tp5182
a(I8
I3
tp5183
a(I8
I4
tp5184
a(I9
I2
tp5185
asg32
g305
sg6
I15
sg10
I60
sg306
(lp5186
g308
asg4
I0
sg29
I100
sg30
g309
sg27
g310
sbs(I9
I18
tp5187
(ilibs
_Pellet
p5188
(dp5189
g9
I10
sg26
I0
sg7
Nsg8
I100
sg11
(lp5190
(I6
I18
tp5191
a(I7
I16
tp5192
a(I7
I17
tp5193
a(I7
I18
tp5194
a(I7
I19
tp5195
a(I8
I16
tp5196
a(I8
I17
tp5197
a(I8
I18
tp5198
a(I8
I19
tp5199
a(I9
I15
tp5200
a(I9
I16
tp5201
a(I9
I17
tp5202
a(I9
I18
tp5203
a(I9
I19
tp5204
a(I10
I16
tp5205
a(I10
I17
tp5206
a(I10
I18
tp5207
a(I10
I19
tp5208
a(I11
I16
tp5209
a(I11
I17
tp5210
a(I11
I18
tp5211
a(I11
I19
tp5212
a(I12
I18
tp5213
asg32
g305
sg6
I15
sg10
I60
sg306
(lp5214
g308
asg4
I0
sg29
I100
sg30
g309
sg27
g310
sbs(I14
I9
tp5215
(ilibs
_Pellet
p5216
(dp5217
g9
I10
sg26
I0
sg7
Nsg8
I100
sg11
(lp5218
(I11
I9
tp5219
a(I12
I7
tp5220
a(I12
I8
tp5221
a(I12
I9
tp5222
a(I12
I10
tp5223
a(I12
I11
tp5224
a(I13
I7
tp5225
a(I13
I8
tp5226
a(I13
I9
tp5227
a(I13
I10
tp5228
a(I13
I11
tp5229
a(I14
I6
tp5230
a(I14
I7
tp5231
a(I14
I8
tp5232
a(I14
I9
tp5233
a(I14
I10
tp5234
a(I14
I11
tp5235
a(I14
I12
tp5236
a(I15
I7
tp5237
a(I15
I8
tp5238
a(I15
I9
tp5239
a(I15
I10
tp5240
a(I15
I11
tp5241
a(I16
I7
tp5242
a(I16
I8
tp5243
a(I16
I9
tp5244
a(I16
I10
tp5245
a(I16
I11
tp5246
a(I17
I9
tp5247
asg32
g305
sg6
I15
sg10
I60
sg306
(lp5248
g308
asg4
I0
sg29
I100
sg30
g309
sg27
g310
sbs(I11
I19
tp5249
(ilibs
_Pellet
p5250
(dp5251
g9
I10
sg26
I0
sg7
Nsg8
I100
sg11
(lp5252
(I8
I19
tp5253
a(I9
I17
tp5254
a(I9
I18
tp5255
a(I9
I19
tp5256
a(I10
I17
tp5257
a(I10
I18
tp5258
a(I10
I19
tp5259
a(I11
I16
tp5260
a(I11
I17
tp5261
a(I11
I18
tp5262
a(I11
I19
tp5263
a(I12
I17
tp5264
a(I12
I18
tp5265
a(I12
I19
tp5266
a(I13
I17
tp5267
a(I13
I18
tp5268
a(I13
I19
tp5269
a(I14
I19
tp5270
asg32
g305
sg6
I15
sg10
I60
sg306
(lp5271
g308
asg4
I0
sg29
I100
sg30
g309
sg27
g310
sbs(I18
I1
tp5272
(ilibs
_Pellet
p5273
(dp5274
g9
I10
sg26
I0
sg7
Nsg8
I100
sg11
(lp5275
(I15
I1
tp5276
a(I16
I0
tp5277
a(I16
I1
tp5278
a(I16
I2
tp5279
a(I16
I3
tp5280
a(I17
I0
tp5281
a(I17
I1
tp5282
a(I17
I2
tp5283
a(I17
I3
tp5284
a(I18
I0
tp5285
a(I18
I1
tp5286
a(I18
I2
tp5287
a(I18
I3
tp5288
a(I18
I4
tp5289
a(I19
I0
tp5290
a(I19
I1
tp5291
a(I19
I2
tp5292
a(I19
I3
tp5293
asg32
g305
sg6
I15
sg10
I60
sg306
(lp5294
g308
asg4
I0
sg29
I100
sg30
g309
sg27
g310
sbs(I17
I15
tp5295
(ilibs
_Pellet
p5296
(dp5297
g9
I10
sg26
I0
sg7
Nsg8
I100
sg11
(lp5298
(I14
I15
tp5299
a(I15
I13
tp5300
a(I15
I14
tp5301
a(I15
I15
tp5302
a(I15
I16
tp5303
a(I15
I17
tp5304
a(I16
I13
tp5305
a(I16
I14
tp5306
a(I16
I15
tp5307
a(I16
I16
tp5308
a(I16
I17
tp5309
a(I17
I12
tp5310
a(I17
I13
tp5311
a(I17
I14
tp5312
a(I17
I15
tp5313
a(I17
I16
tp5314
a(I17
I17
tp5315
a(I17
I18
tp5316
a(I18
I13
tp5317
a(I18
I14
tp5318
a(I18
I15
tp5319
a(I18
I16
tp5320
a(I18
I17
tp5321
a(I19
I13
tp5322
a(I19
I14
tp5323
a(I19
I15
tp5324
a(I19
I16
tp5325
a(I19
I17
tp5326
asg32
g305
sg6
I15
sg10
I60
sg306
(lp5327
g308
asg4
I0
sg29
I100
sg30
g309
sg27
g310
sbs(I16
I17
tp5328
(ilibs
_Pellet
p5329
(dp5330
g9
I10
sg26
I0
sg7
Nsg8
I100
sg11
(lp5331
(I13
I17
tp5332
a(I14
I15
tp5333
a(I14
I16
tp5334
a(I14
I17
tp5335
a(I14
I18
tp5336
a(I14
I19
tp5337
a(I15
I15
tp5338
a(I15
I16
tp5339
a(I15
I17
tp5340
a(I15
I18
tp5341
a(I15
I19
tp5342
a(I16
I14
tp5343
a(I16
I15
tp5344
a(I16
I16
tp5345
a(I16
I17
tp5346
a(I16
I18
tp5347
a(I16
I19
tp5348
a(I17
I15
tp5349
a(I17
I16
tp5350
a(I17
I17
tp5351
a(I17
I18
tp5352
a(I17
I19
tp5353
a(I18
I15
tp5354
a(I18
I16
tp5355
a(I18
I17
tp5356
a(I18
I18
tp5357
a(I18
I19
tp5358
a(I19
I17
tp5359
asg32
g305
sg6
I15
sg10
I60
sg306
(lp5360
g308
asg4
I0
sg29
I100
sg30
g309
sg27
g310
sbs(I2
I19
tp5361
(ilibs
_Pellet
p5362
(dp5363
g9
I10
sg26
I0
sg7
Nsg8
I100
sg11
(lp5364
(I0
I17
tp5365
a(I0
I18
tp5366
a(I0
I19
tp5367
a(I1
I17
tp5368
a(I1
I18
tp5369
a(I1
I19
tp5370
a(I2
I16
tp5371
a(I2
I17
tp5372
a(I2
I18
tp5373
a(I2
I19
tp5374
a(I3
I17
tp5375
a(I3
I18
tp5376
a(I3
I19
tp5377
a(I4
I17
tp5378
a(I4
I18
tp5379
a(I4
I19
tp5380
a(I5
I19
tp5381
asg32
g305
sg6
I15
sg10
I60
sg306
(lp5382
g308
asg4
I0
sg29
I100
sg30
g309
sg27
g310
sbs(I0
I15
tp5383
(ilibs
_Pellet
p5384
(dp5385
g9
I10
sg26
I0
sg7
Nsg8
I100
sg11
(lp5386
(I0
I12
tp5387
a(I0
I13
tp5388
a(I0
I14
tp5389
a(I0
I15
tp5390
a(I0
I16
tp5391
a(I0
I17
tp5392
a(I0
I18
tp5393
a(I1
I13
tp5394
a(I1
I14
tp5395
a(I1
I15
tp5396
a(I1
I16
tp5397
a(I1
I17
tp5398
a(I2
I13
tp5399
a(I2
I14
tp5400
a(I2
I15
tp5401
a(I2
I16
tp5402
a(I2
I17
tp5403
a(I3
I15
tp5404
asg32
g305
sg6
I15
sg10
I60
sg306
(lp5405
g308
asg4
I0
sg29
I100
sg30
g309
sg27
g310
sbs(I8
I10
tp5406
(ilibs
_Aqua
p5407
(dp5408
g9
I5
sg26
I30
sg7
Nsg8
I70
sg6
I30
sg10
I120
sg11
(lp5409
(I2
I10
tp5410
a(I3
I7
tp5411
a(I3
I8
tp5412
a(I3
I9
tp5413
a(I3
I10
tp5414
a(I3
I11
tp5415
a(I3
I12
tp5416
a(I3
I13
tp5417
a(I4
I6
tp5418
a(I4
I7
tp5419
a(I4
I8
tp5420
a(I4
I9
tp5421
a(I4
I10
tp5422
a(I4
I11
tp5423
a(I4
I12
tp5424
a(I4
I13
tp5425
a(I4
I14
tp5426
a(I5
I5
tp5427
a(I5
I6
tp5428
a(I5
I7
tp5429
a(I5
I8
tp5430
a(I5
I9
tp5431
a(I5
I10
tp5432
a(I5
I11
tp5433
a(I5
I12
tp5434
a(I5
I13
tp5435
a(I5
I14
tp5436
a(I5
I15
tp5437
a(I6
I5
tp5438
a(I6
I6
tp5439
a(I6
I7
tp5440
a(I6
I8
tp5441
a(I6
I9
tp5442
a(I6
I10
tp5443
a(I6
I11
tp5444
a(I6
I12
tp5445
a(I6
I13
tp5446
a(I6
I14
tp5447
a(I6
I15
tp5448
a(I7
I5
tp5449
a(I7
I6
tp5450
a(I7
I7
tp5451
a(I7
I8
tp5452
a(I7
I9
tp5453
a(I7
I10
tp5454
a(I7
I11
tp5455
a(I7
I12
tp5456
a(I7
I13
tp5457
a(I7
I14
tp5458
a(I7
I15
tp5459
a(I8
I4
tp5460
a(I8
I5
tp5461
a(I8
I6
tp5462
a(I8
I7
tp5463
a(I8
I8
tp5464
a(I8
I9
tp5465
a(I8
I10
tp5466
a(I8
I11
tp5467
a(I8
I12
tp5468
a(I8
I13
tp5469
a(I8
I14
tp5470
a(I8
I15
tp5471
a(I8
I16
tp5472
a(I9
I5
tp5473
a(I9
I6
tp5474
a(I9
I7
tp5475
a(I9
I8
tp5476
a(I9
I9
tp5477
a(I9
I10
tp5478
a(I9
I11
tp5479
a(I9
I12
tp5480
a(I9
I13
tp5481
a(I9
I14
tp5482
a(I9
I15
tp5483
a(I10
I5
tp5484
a(I10
I6
tp5485
a(I10
I7
tp5486
a(I10
I8
tp5487
a(I10
I9
tp5488
a(I10
I10
tp5489
a(I10
I11
tp5490
a(I10
I12
tp5491
a(I10
I13
tp5492
a(I10
I14
tp5493
a(I10
I15
tp5494
a(I11
I5
tp5495
a(I11
I6
tp5496
a(I11
I7
tp5497
a(I11
I8
tp5498
a(I11
I9
tp5499
a(I11
I10
tp5500
a(I11
I11
tp5501
a(I11
I12
tp5502
a(I11
I13
tp5503
a(I11
I14
tp5504
a(I11
I15
tp5505
a(I12
I6
tp5506
a(I12
I7
tp5507
a(I12
I8
tp5508
a(I12
I9
tp5509
a(I12
I10
tp5510
a(I12
I11
tp5511
a(I12
I12
tp5512
a(I12
I13
tp5513
a(I12
I14
tp5514
a(I13
I7
tp5515
a(I13
I8
tp5516
a(I13
I9
tp5517
a(I13
I10
tp5518
a(I13
I11
tp5519
a(I13
I12
tp5520
a(I13
I13
tp5521
a(I14
I10
tp5522
asg27
g1685
sg4
I0
sg29
I70
sg30
g1686
sg32
g1687
sbs(I4
I13
tp5523
(ilibs
_Pellet
p5524
(dp5525
g9
I10
sg26
I0
sg7
Nsg8
I100
sg11
(lp5526
(I1
I13
tp5527
a(I2
I11
tp5528
a(I2
I12
tp5529
a(I2
I13
tp5530
a(I2
I14
tp5531
a(I2
I15
tp5532
a(I3
I11
tp5533
a(I3
I12
tp5534
a(I3
I13
tp5535
a(I3
I14
tp5536
a(I3
I15
tp5537
a(I4
I10
tp5538
a(I4
I11
tp5539
a(I4
I12
tp5540
a(I4
I13
tp5541
a(I4
I14
tp5542
a(I4
I15
tp5543
a(I4
I16
tp5544
a(I5
I11
tp5545
a(I5
I12
tp5546
a(I5
I13
tp5547
a(I5
I14
tp5548
a(I5
I15
tp5549
a(I6
I11
tp5550
a(I6
I12
tp5551
a(I6
I13
tp5552
a(I6
I14
tp5553
a(I6
I15
tp5554
a(I7
I13
tp5555
asg32
g305
sg6
I15
sg10
I60
sg306
(lp5556
g308
asg4
I0
sg29
I100
sg30
g309
sg27
g310
sbs(I2
I13
tp5557
(ilibs
_4
p5558
(dp5559
g4
I0
sg5
I01
sg6
I200
sg7
Nsg8
I300
sg9
I40
sg10
I40
sg11
(lp5560
(I0
I13
tp5561
a(I1
I12
tp5562
a(I1
I13
tp5563
a(I1
I14
tp5564
a(I2
I11
tp5565
a(I2
I12
tp5566
a(I2
I13
tp5567
a(I2
I14
tp5568
a(I2
I15
tp5569
a(I3
I12
tp5570
a(I3
I13
tp5571
a(I3
I14
tp5572
a(I4
I13
tp5573
asg26
I30
sg27
g28
sg29
I300
sg30
g31
sg32
g33
sbs(I5
I0
tp5574
(ilibs
_Pellet
p5575
(dp5576
g9
I10
sg26
I0
sg7
Nsg8
I100
sg11
(lp5577
(I2
I0
tp5578
a(I3
I0
tp5579
a(I3
I1
tp5580
a(I3
I2
tp5581
a(I4
I0
tp5582
a(I4
I1
tp5583
a(I4
I2
tp5584
a(I5
I0
tp5585
a(I5
I1
tp5586
a(I5
I2
tp5587
a(I5
I3
tp5588
a(I6
I0
tp5589
a(I6
I1
tp5590
a(I6
I2
tp5591
a(I7
I0
tp5592
a(I7
I1
tp5593
a(I7
I2
tp5594
a(I8
I0
tp5595
asg32
g305
sg6
I15
sg10
I60
sg306
(lp5596
g308
asg4
I0
sg29
I100
sg30
g309
sg27
g310
sbs(I6
I15
tp5597
(ilibs
_Pellet
p5598
(dp5599
g9
I10
sg26
I0
sg7
Nsg8
I100
sg11
(lp5600
(I3
I15
tp5601
a(I4
I13
tp5602
a(I4
I14
tp5603
a(I4
I15
tp5604
a(I4
I16
tp5605
a(I4
I17
tp5606
a(I5
I13
tp5607
a(I5
I14
tp5608
a(I5
I15
tp5609
a(I5
I16
tp5610
a(I5
I17
tp5611
a(I6
I12
tp5612
a(I6
I13
tp5613
a(I6
I14
tp5614
a(I6
I15
tp5615
a(I6
I16
tp5616
a(I6
I17
tp5617
a(I6
I18
tp5618
a(I7
I13
tp5619
a(I7
I14
tp5620
a(I7
I15
tp5621
a(I7
I16
tp5622
a(I7
I17
tp5623
a(I8
I13
tp5624
a(I8
I14
tp5625
a(I8
I15
tp5626
a(I8
I16
tp5627
a(I8
I17
tp5628
a(I9
I15
tp5629
asg32
g305
sg6
I15
sg10
I60
sg306
(lp5630
g308
asg4
I0
sg29
I100
sg30
g309
sg27
g310
sbs(I16
I10
tp5631
(ilibs
_4
p5632
(dp5633
g4
I0
sg5
I01
sg6
I200
sg7
Nsg8
I300
sg9
I40
sg10
I40
sg11
(lp5634
(I14
I10
tp5635
a(I15
I9
tp5636
a(I15
I10
tp5637
a(I15
I11
tp5638
a(I16
I8
tp5639
a(I16
I9
tp5640
a(I16
I10
tp5641
a(I16
I11
tp5642
a(I16
I12
tp5643
a(I17
I9
tp5644
a(I17
I10
tp5645
a(I17
I11
tp5646
a(I18
I10
tp5647
asg26
I30
sg27
g28
sg29
I300
sg30
g31
sg32
g33
sbs(I16
I11
tp5648
(ilibs
_Pellet
p5649
(dp5650
g9
I10
sg26
I0
sg7
Nsg8
I100
sg11
(lp5651
(I13
I11
tp5652
a(I14
I9
tp5653
a(I14
I10
tp5654
a(I14
I11
tp5655
a(I14
I12
tp5656
a(I14
I13
tp5657
a(I15
I9
tp5658
a(I15
I10
tp5659
a(I15
I11
tp5660
a(I15
I12
tp5661
a(I15
I13
tp5662
a(I16
I8
tp5663
a(I16
I9
tp5664
a(I16
I10
tp5665
a(I16
I11
tp5666
a(I16
I12
tp5667
a(I16
I13
tp5668
a(I16
I14
tp5669
a(I17
I9
tp5670
a(I17
I10
tp5671
a(I17
I11
tp5672
a(I17
I12
tp5673
a(I17
I13
tp5674
a(I18
I9
tp5675
a(I18
I10
tp5676
a(I18
I11
tp5677
a(I18
I12
tp5678
a(I18
I13
tp5679
a(I19
I11
tp5680
asg32
g305
sg6
I15
sg10
I60
sg306
(lp5681
g308
asg4
I0
sg29
I100
sg30
g309
sg27
g310
sbs(I14
I10
tp5682
(ilibs
_Pellet
p5683
(dp5684
g9
I10
sg26
I0
sg7
Nsg8
I100
sg11
(lp5685
(I11
I10
tp5686
a(I12
I8
tp5687
a(I12
I9
tp5688
a(I12
I10
tp5689
a(I12
I11
tp5690
a(I12
I12
tp5691
a(I13
I8
tp5692
a(I13
I9
tp5693
a(I13
I10
tp5694
a(I13
I11
tp5695
a(I13
I12
tp5696
a(I14
I7
tp5697
a(I14
I8
tp5698
a(I14
I9
tp5699
a(I14
I10
tp5700
a(I14
I11
tp5701
a(I14
I12
tp5702
a(I14
I13
tp5703
a(I15
I8
tp5704
a(I15
I9
tp5705
a(I15
I10
tp5706
a(I15
I11
tp5707
a(I15
I12
tp5708
a(I16
I8
tp5709
a(I16
I9
tp5710
a(I16
I10
tp5711
a(I16
I11
tp5712
a(I16
I12
tp5713
a(I17
I10
tp5714
asg32
g305
sg6
I15
sg10
I60
sg306
(lp5715
g308
asg4
I0
sg29
I100
sg30
g309
sg27
g310
sbs(I13
I2
tp5716
(ilibs
_4
p5717
(dp5718
g4
I0
sg5
I01
sg6
I200
sg7
Nsg8
I300
sg9
I40
sg10
I40
sg11
(lp5719
(I11
I2
tp5720
a(I12
I1
tp5721
a(I12
I2
tp5722
a(I12
I3
tp5723
a(I13
I0
tp5724
a(I13
I1
tp5725
a(I13
I2
tp5726
a(I13
I3
tp5727
a(I13
I4
tp5728
a(I14
I1
tp5729
a(I14
I2
tp5730
a(I14
I3
tp5731
a(I15
I2
tp5732
asg26
I30
sg27
g28
sg29
I300
sg30
g31
sg32
g33
sbs(I18
I2
tp5733
(ilibs
_Pellet
p5734
(dp5735
g9
I10
sg26
I0
sg7
Nsg8
I100
sg11
(lp5736
(I15
I2
tp5737
a(I16
I0
tp5738
a(I16
I1
tp5739
a(I16
I2
tp5740
a(I16
I3
tp5741
a(I16
I4
tp5742
a(I17
I0
tp5743
a(I17
I1
tp5744
a(I17
I2
tp5745
a(I17
I3
tp5746
a(I17
I4
tp5747
a(I18
I0
tp5748
a(I18
I1
tp5749
a(I18
I2
tp5750
a(I18
I3
tp5751
a(I18
I4
tp5752
a(I18
I5
tp5753
a(I19
I0
tp5754
a(I19
I1
tp5755
a(I19
I2
tp5756
a(I19
I3
tp5757
a(I19
I4
tp5758
asg32
g305
sg6
I15
sg10
I60
sg306
(lp5759
g308
asg4
I0
sg29
I100
sg30
g309
sg27
g310
sbs(I15
I3
tp5760
(ilibs
_Pellet
p5761
(dp5762
g9
I10
sg26
I0
sg7
Nsg8
I100
sg11
(lp5763
(I12
I3
tp5764
a(I13
I1
tp5765
a(I13
I2
tp5766
a(I13
I3
tp5767
a(I13
I4
tp5768
a(I13
I5
tp5769
a(I14
I1
tp5770
a(I14
I2
tp5771
a(I14
I3
tp5772
a(I14
I4
tp5773
a(I14
I5
tp5774
a(I15
I0
tp5775
a(I15
I1
tp5776
a(I15
I2
tp5777
a(I15
I3
tp5778
a(I15
I4
tp5779
a(I15
I5
tp5780
a(I15
I6
tp5781
a(I16
I1
tp5782
a(I16
I2
tp5783
a(I16
I3
tp5784
a(I16
I4
tp5785
a(I16
I5
tp5786
a(I17
I1
tp5787
a(I17
I2
tp5788
a(I17
I3
tp5789
a(I17
I4
tp5790
a(I17
I5
tp5791
a(I18
I3
tp5792
asg32
g305
sg6
I15
sg10
I60
sg306
(lp5793
g308
asg4
I0
sg29
I100
sg30
g309
sg27
g310
sbs(I13
I15
tp5794
(ilibs
_Pellet
p5795
(dp5796
g9
I10
sg26
I0
sg7
Nsg8
I100
sg11
(lp5797
(I10
I15
tp5798
a(I11
I13
tp5799
a(I11
I14
tp5800
a(I11
I15
tp5801
a(I11
I16
tp5802
a(I11
I17
tp5803
a(I12
I13
tp5804
a(I12
I14
tp5805
a(I12
I15
tp5806
a(I12
I16
tp5807
a(I12
I17
tp5808
a(I13
I12
tp5809
a(I13
I13
tp5810
a(I13
I14
tp5811
a(I13
I15
tp5812
a(I13
I16
tp5813
a(I13
I17
tp5814
a(I13
I18
tp5815
a(I14
I13
tp5816
a(I14
I14
tp5817
a(I14
I15
tp5818
a(I14
I16
tp5819
a(I14
I17
tp5820
a(I15
I13
tp5821
a(I15
I14
tp5822
a(I15
I15
tp5823
a(I15
I16
tp5824
a(I15
I17
tp5825
a(I16
I15
tp5826
asg32
g305
sg6
I15
sg10
I60
sg306
(lp5827
g308
asg4
I0
sg29
I100
sg30
g309
sg27
g310
sbs(I1
I4
tp5828
(ilibs
_Pellet
p5829
(dp5830
g9
I10
sg26
I0
sg7
Nsg8
I100
sg11
(lp5831
(I0
I2
tp5832
a(I0
I3
tp5833
a(I0
I4
tp5834
a(I0
I5
tp5835
a(I0
I6
tp5836
a(I1
I1
tp5837
a(I1
I2
tp5838
a(I1
I3
tp5839
a(I1
I4
tp5840
a(I1
I5
tp5841
a(I1
I6
tp5842
a(I1
I7
tp5843
a(I2
I2
tp5844
a(I2
I3
tp5845
a(I2
I4
tp5846
a(I2
I5
tp5847
a(I2
I6
tp5848
a(I3
I2
tp5849
a(I3
I3
tp5850
a(I3
I4
tp5851
a(I3
I5
tp5852
a(I3
I6
tp5853
a(I4
I4
tp5854
asg32
g305
sg6
I15
sg10
I60
sg306
(lp5855
g308
asg4
I0
sg29
I100
sg30
g309
sg27
g310
sbs(I0
I12
tp5856
(ilibs
_Pellet
p5857
(dp5858
g9
I10
sg26
I0
sg7
Nsg8
I100
sg11
(lp5859
(I0
I9
tp5860
a(I0
I10
tp5861
a(I0
I11
tp5862
a(I0
I12
tp5863
a(I0
I13
tp5864
a(I0
I14
tp5865
a(I0
I15
tp5866
a(I1
I10
tp5867
a(I1
I11
tp5868
a(I1
I12
tp5869
a(I1
I13
tp5870
a(I1
I14
tp5871
a(I2
I10
tp5872
a(I2
I11
tp5873
a(I2
I12
tp5874
a(I2
I13
tp5875
a(I2
I14
tp5876
a(I3
I12
tp5877
asg32
g305
sg6
I15
sg10
I60
sg306
(lp5878
g308
asg4
I0
sg29
I100
sg30
g309
sg27
g310
sbs(I4
I2
tp5879
(ilibs
_Pellet
p5880
(dp5881
g9
I10
sg26
I0
sg7
Nsg8
I100
sg11
(lp5882
(I1
I2
tp5883
a(I2
I0
tp5884
a(I2
I1
tp5885
a(I2
I2
tp5886
a(I2
I3
tp5887
a(I2
I4
tp5888
a(I3
I0
tp5889
a(I3
I1
tp5890
a(I3
I2
tp5891
a(I3
I3
tp5892
a(I3
I4
tp5893
a(I4
I0
tp5894
a(I4
I1
tp5895
a(I4
I2
tp5896
a(I4
I3
tp5897
a(I4
I4
tp5898
a(I4
I5
tp5899
a(I5
I0
tp5900
a(I5
I1
tp5901
a(I5
I2
tp5902
a(I5
I3
tp5903
a(I5
I4
tp5904
a(I6
I0
tp5905
a(I6
I1
tp5906
a(I6
I2
tp5907
a(I6
I3
tp5908
a(I6
I4
tp5909
a(I7
I2
tp5910
asg32
g305
sg6
I15
sg10
I60
sg306
(lp5911
g308
asg4
I0
sg29
I100
sg30
g309
sg27
g310
sbs(I9
I6
tp5912
(ilibs
_Pellet
p5913
(dp5914
g9
I10
sg26
I0
sg7
Nsg8
I100
sg11
(lp5915
(I6
I6
tp5916
a(I7
I4
tp5917
a(I7
I5
tp5918
a(I7
I6
tp5919
a(I7
I7
tp5920
a(I7
I8
tp5921
a(I8
I4
tp5922
a(I8
I5
tp5923
a(I8
I6
tp5924
a(I8
I7
tp5925
a(I8
I8
tp5926
a(I9
I3
tp5927
a(I9
I4
tp5928
a(I9
I5
tp5929
a(I9
I6
tp5930
a(I9
I7
tp5931
a(I9
I8
tp5932
a(I9
I9
tp5933
a(I10
I4
tp5934
a(I10
I5
tp5935
a(I10
I6
tp5936
a(I10
I7
tp5937
a(I10
I8
tp5938
a(I11
I4
tp5939
a(I11
I5
tp5940
a(I11
I6
tp5941
a(I11
I7
tp5942
a(I11
I8
tp5943
a(I12
I6
tp5944
asg32
g305
sg6
I15
sg10
I60
sg306
(lp5945
g308
asg4
I0
sg29
I100
sg30
g309
sg27
g310
sbs(I6
I5
tp5946
(ilibs
_Pellet
p5947
(dp5948
g9
I10
sg26
I0
sg7
Nsg8
I100
sg11
(lp5949
(I3
I5
tp5950
a(I4
I3
tp5951
a(I4
I4
tp5952
a(I4
I5
tp5953
a(I4
I6
tp5954
a(I4
I7
tp5955
a(I5
I3
tp5956
a(I5
I4
tp5957
a(I5
I5
tp5958
a(I5
I6
tp5959
a(I5
I7
tp5960
a(I6
I2
tp5961
a(I6
I3
tp5962
a(I6
I4
tp5963
a(I6
I5
tp5964
a(I6
I6
tp5965
a(I6
I7
tp5966
a(I6
I8
tp5967
a(I7
I3
tp5968
a(I7
I4
tp5969
a(I7
I5
tp5970
a(I7
I6
tp5971
a(I7
I7
tp5972
a(I8
I3
tp5973
a(I8
I4
tp5974
a(I8
I5
tp5975
a(I8
I6
tp5976
a(I8
I7
tp5977
a(I9
I5
tp5978
asg32
g305
sg6
I15
sg10
I60
sg306
(lp5979
g308
asg4
I0
sg29
I100
sg30
g309
sg27
g310
sbs(I7
I0
tp5980
(ilibs
_Pellet
p5981
(dp5982
g9
I10
sg26
I0
sg7
Nsg8
I100
sg11
(lp5983
(I4
I0
tp5984
a(I5
I0
tp5985
a(I5
I1
tp5986
a(I5
I2
tp5987
a(I6
I0
tp5988
a(I6
I1
tp5989
a(I6
I2
tp5990
a(I7
I0
tp5991
a(I7
I1
tp5992
a(I7
I2
tp5993
a(I7
I3
tp5994
a(I8
I0
tp5995
a(I8
I1
tp5996
a(I8
I2
tp5997
a(I9
I0
tp5998
a(I9
I1
tp5999
a(I9
I2
tp6000
a(I10
I0
tp6001
asg32
g305
sg6
I15
sg10
I60
sg306
(lp6002
g308
asg4
I0
sg29
I100
sg30
g309
sg27
g310
sbs(I14
I16
tp6003
(ilibs
_Pellet
p6004
(dp6005
g9
I10
sg26
I0
sg7
Nsg8
I100
sg11
(lp6006
(I11
I16
tp6007
a(I12
I14
tp6008
a(I12
I15
tp6009
a(I12
I16
tp6010
a(I12
I17
tp6011
a(I12
I18
tp6012
a(I13
I14
tp6013
a(I13
I15
tp6014
a(I13
I16
tp6015
a(I13
I17
tp6016
a(I13
I18
tp6017
a(I14
I13
tp6018
a(I14
I14
tp6019
a(I14
I15
tp6020
a(I14
I16
tp6021
a(I14
I17
tp6022
a(I14
I18
tp6023
a(I14
I19
tp6024
a(I15
I14
tp6025
a(I15
I15
tp6026
a(I15
I16
tp6027
a(I15
I17
tp6028
a(I15
I18
tp6029
a(I16
I14
tp6030
a(I16
I15
tp6031
a(I16
I16
tp6032
a(I16
I17
tp6033
a(I16
I18
tp6034
a(I17
I16
tp6035
asg32
g305
sg6
I15
sg10
I60
sg306
(lp6036
g308
asg4
I0
sg29
I100
sg30
g309
sg27
g310
sbs(I12
I0
tp6037
(ilibs
_Pellet
p6038
(dp6039
g9
I10
sg26
I0
sg7
Nsg8
I100
sg11
(lp6040
(I9
I0
tp6041
a(I10
I0
tp6042
a(I10
I1
tp6043
a(I10
I2
tp6044
a(I11
I0
tp6045
a(I11
I1
tp6046
a(I11
I2
tp6047
a(I12
I0
tp6048
a(I12
I1
tp6049
a(I12
I2
tp6050
a(I12
I3
tp6051
a(I13
I0
tp6052
a(I13
I1
tp6053
a(I13
I2
tp6054
a(I14
I0
tp6055
a(I14
I1
tp6056
a(I14
I2
tp6057
a(I15
I0
tp6058
asg32
g305
sg6
I15
sg10
I60
sg306
(lp6059
g308
asg4
I0
sg29
I100
sg30
g309
sg27
g310
sbs(I11
I8
tp6060
(ilibs
_3
p6061
(dp6062
g4
I0
sg9
I20
sg26
I30
sg7
Nsg8
I300
sg6
I100
sg10
I180
sg11
(lp6063
(I2
I8
tp6064
a(I3
I4
tp6065
a(I3
I5
tp6066
a(I3
I6
tp6067
a(I3
I7
tp6068
a(I3
I8
tp6069
a(I3
I9
tp6070
a(I3
I10
tp6071
a(I3
I11
tp6072
a(I3
I12
tp6073
a(I4
I3
tp6074
a(I4
I4
tp6075
a(I4
I5
tp6076
a(I4
I6
tp6077
a(I4
I7
tp6078
a(I4
I8
tp6079
a(I4
I9
tp6080
a(I4
I10
tp6081
a(I4
I11
tp6082
a(I4
I12
tp6083
a(I4
I13
tp6084
a(I5
I2
tp6085
a(I5
I3
tp6086
a(I5
I4
tp6087
a(I5
I5
tp6088
a(I5
I6
tp6089
a(I5
I7
tp6090
a(I5
I8
tp6091
a(I5
I9
tp6092
a(I5
I10
tp6093
a(I5
I11
tp6094
a(I5
I12
tp6095
a(I5
I13
tp6096
a(I5
I14
tp6097
a(I6
I1
tp6098
a(I6
I2
tp6099
a(I6
I3
tp6100
a(I6
I4
tp6101
a(I6
I5
tp6102
a(I6
I6
tp6103
a(I6
I7
tp6104
a(I6
I8
tp6105
a(I6
I9
tp6106
a(I6
I10
tp6107
a(I6
I11
tp6108
a(I6
I12
tp6109
a(I6
I13
tp6110
a(I6
I14
tp6111
a(I6
I15
tp6112
a(I7
I0
tp6113
a(I7
I1
tp6114
a(I7
I2
tp6115
a(I7
I3
tp6116
a(I7
I4
tp6117
a(I7
I5
tp6118
a(I7
I6
tp6119
a(I7
I7
tp6120
a(I7
I8
tp6121
a(I7
I9
tp6122
a(I7
I10
tp6123
a(I7
I11
tp6124
a(I7
I12
tp6125
a(I7
I13
tp6126
a(I7
I14
tp6127
a(I7
I15
tp6128
a(I7
I16
tp6129
a(I8
I0
tp6130
a(I8
I1
tp6131
a(I8
I2
tp6132
a(I8
I3
tp6133
a(I8
I4
tp6134
a(I8
I5
tp6135
a(I8
I6
tp6136
a(I8
I7
tp6137
a(I8
I8
tp6138
a(I8
I9
tp6139
a(I8
I10
tp6140
a(I8
I11
tp6141
a(I8
I12
tp6142
a(I8
I13
tp6143
a(I8
I14
tp6144
a(I8
I15
tp6145
a(I8
I16
tp6146
a(I9
I0
tp6147
a(I9
I1
tp6148
a(I9
I2
tp6149
a(I9
I3
tp6150
a(I9
I4
tp6151
a(I9
I5
tp6152
a(I9
I6
tp6153
a(I9
I7
tp6154
a(I9
I8
tp6155
a(I9
I9
tp6156
a(I9
I10
tp6157
a(I9
I11
tp6158
a(I9
I12
tp6159
a(I9
I13
tp6160
a(I9
I14
tp6161
a(I9
I15
tp6162
a(I9
I16
tp6163
a(I10
I0
tp6164
a(I10
I1
tp6165
a(I10
I2
tp6166
a(I10
I3
tp6167
a(I10
I4
tp6168
a(I10
I5
tp6169
a(I10
I6
tp6170
a(I10
I7
tp6171
a(I10
I8
tp6172
a(I10
I9
tp6173
a(I10
I10
tp6174
a(I10
I11
tp6175
a(I10
I12
tp6176
a(I10
I13
tp6177
a(I10
I14
tp6178
a(I10
I15
tp6179
a(I10
I16
tp6180
a(I11
I0
tp6181
a(I11
I1
tp6182
a(I11
I2
tp6183
a(I11
I3
tp6184
a(I11
I4
tp6185
a(I11
I5
tp6186
a(I11
I6
tp6187
a(I11
I7
tp6188
a(I11
I8
tp6189
a(I11
I9
tp6190
a(I11
I10
tp6191
a(I11
I11
tp6192
a(I11
I12
tp6193
a(I11
I13
tp6194
a(I11
I14
tp6195
a(I11
I15
tp6196
a(I11
I16
tp6197
a(I11
I17
tp6198
a(I12
I0
tp6199
a(I12
I1
tp6200
a(I12
I2
tp6201
a(I12
I3
tp6202
a(I12
I4
tp6203
a(I12
I5
tp6204
a(I12
I6
tp6205
a(I12
I7
tp6206
a(I12
I8
tp6207
a(I12
I9
tp6208
a(I12
I10
tp6209
a(I12
I11
tp6210
a(I12
I12
tp6211
a(I12
I13
tp6212
a(I12
I14
tp6213
a(I12
I15
tp6214
a(I12
I16
tp6215
a(I13
I0
tp6216
a(I13
I1
tp6217
a(I13
I2
tp6218
a(I13
I3
tp6219
a(I13
I4
tp6220
a(I13
I5
tp6221
a(I13
I6
tp6222
a(I13
I7
tp6223
a(I13
I8
tp6224
a(I13
I9
tp6225
a(I13
I10
tp6226
a(I13
I11
tp6227
a(I13
I12
tp6228
a(I13
I13
tp6229
a(I13
I14
tp6230
a(I13
I15
tp6231
a(I13
I16
tp6232
a(I14
I0
tp6233
a(I14
I1
tp6234
a(I14
I2
tp6235
a(I14
I3
tp6236
a(I14
I4
tp6237
a(I14
I5
tp6238
a(I14
I6
tp6239
a(I14
I7
tp6240
a(I14
I8
tp6241
a(I14
I9
tp6242
a(I14
I10
tp6243
a(I14
I11
tp6244
a(I14
I12
tp6245
a(I14
I13
tp6246
a(I14
I14
tp6247
a(I14
I15
tp6248
a(I14
I16
tp6249
a(I15
I0
tp6250
a(I15
I1
tp6251
a(I15
I2
tp6252
a(I15
I3
tp6253
a(I15
I4
tp6254
a(I15
I5
tp6255
a(I15
I6
tp6256
a(I15
I7
tp6257
a(I15
I8
tp6258
a(I15
I9
tp6259
a(I15
I10
tp6260
a(I15
I11
tp6261
a(I15
I12
tp6262
a(I15
I13
tp6263
a(I15
I14
tp6264
a(I15
I15
tp6265
a(I15
I16
tp6266
a(I16
I1
tp6267
a(I16
I2
tp6268
a(I16
I3
tp6269
a(I16
I4
tp6270
a(I16
I5
tp6271
a(I16
I6
tp6272
a(I16
I7
tp6273
a(I16
I8
tp6274
a(I16
I9
tp6275
a(I16
I10
tp6276
a(I16
I11
tp6277
a(I16
I12
tp6278
a(I16
I13
tp6279
a(I16
I14
tp6280
a(I16
I15
tp6281
a(I17
I2
tp6282
a(I17
I3
tp6283
a(I17
I4
tp6284
a(I17
I5
tp6285
a(I17
I6
tp6286
a(I17
I7
tp6287
a(I17
I8
tp6288
a(I17
I9
tp6289
a(I17
I10
tp6290
a(I17
I11
tp6291
a(I17
I12
tp6292
a(I17
I13
tp6293
a(I17
I14
tp6294
a(I18
I3
tp6295
a(I18
I4
tp6296
a(I18
I5
tp6297
a(I18
I6
tp6298
a(I18
I7
tp6299
a(I18
I8
tp6300
a(I18
I9
tp6301
a(I18
I10
tp6302
a(I18
I11
tp6303
a(I18
I12
tp6304
a(I18
I13
tp6305
a(I19
I4
tp6306
a(I19
I5
tp6307
a(I19
I6
tp6308
a(I19
I7
tp6309
a(I19
I8
tp6310
a(I19
I9
tp6311
a(I19
I10
tp6312
a(I19
I11
tp6313
a(I19
I12
tp6314
asg27
g270
sg29
I300
sg30
g271
sg32
g272
sbs(I0
I19
tp6315
(ilibs
_Pellet
p6316
(dp6317
g9
I10
sg26
I0
sg7
Nsg8
I100
sg11
(lp6318
(I0
I16
tp6319
a(I0
I17
tp6320
a(I0
I18
tp6321
a(I0
I19
tp6322
a(I1
I17
tp6323
a(I1
I18
tp6324
a(I1
I19
tp6325
a(I2
I17
tp6326
a(I2
I18
tp6327
a(I2
I19
tp6328
a(I3
I19
tp6329
asg32
g305
sg6
I15
sg10
I60
sg306
(lp6330
g308
asg4
I0
sg29
I100
sg30
g309
sg27
g310
sbs(I16
I8
tp6331
(ilibs
_Pellet
p6332
(dp6333
g9
I10
sg26
I0
sg7
Nsg8
I100
sg11
(lp6334
(I13
I8
tp6335
a(I14
I6
tp6336
a(I14
I7
tp6337
a(I14
I8
tp6338
a(I14
I9
tp6339
a(I14
I10
tp6340
a(I15
I6
tp6341
a(I15
I7
tp6342
a(I15
I8
tp6343
a(I15
I9
tp6344
a(I15
I10
tp6345
a(I16
I5
tp6346
a(I16
I6
tp6347
a(I16
I7
tp6348
a(I16
I8
tp6349
a(I16
I9
tp6350
a(I16
I10
tp6351
a(I16
I11
tp6352
a(I17
I6
tp6353
a(I17
I7
tp6354
a(I17
I8
tp6355
a(I17
I9
tp6356
a(I17
I10
tp6357
a(I18
I6
tp6358
a(I18
I7
tp6359
a(I18
I8
tp6360
a(I18
I9
tp6361
a(I18
I10
tp6362
a(I19
I8
tp6363
asg32
g305
sg6
I15
sg10
I60
sg306
(lp6364
g308
asg4
I0
sg29
I100
sg30
g309
sg27
g310
sbs(I13
I5
tp6365
(ilibs
_Pellet
p6366
(dp6367
g9
I10
sg26
I0
sg7
Nsg8
I100
sg11
(lp6368
(I10
I5
tp6369
a(I11
I3
tp6370
a(I11
I4
tp6371
a(I11
I5
tp6372
a(I11
I6
tp6373
a(I11
I7
tp6374
a(I12
I3
tp6375
a(I12
I4
tp6376
a(I12
I5
tp6377
a(I12
I6
tp6378
a(I12
I7
tp6379
a(I13
I2
tp6380
a(I13
I3
tp6381
a(I13
I4
tp6382
a(I13
I5
tp6383
a(I13
I6
tp6384
a(I13
I7
tp6385
a(I13
I8
tp6386
a(I14
I3
tp6387
a(I14
I4
tp6388
a(I14
I5
tp6389
a(I14
I6
tp6390
a(I14
I7
tp6391
a(I15
I3
tp6392
a(I15
I4
tp6393
a(I15
I5
tp6394
a(I15
I6
tp6395
a(I15
I7
tp6396
a(I16
I5
tp6397
asg32
g305
sg6
I15
sg10
I60
sg306
(lp6398
g308
asg4
I0
sg29
I100
sg30
g309
sg27
g310
sbs(I12
I19
tp6399
(ilibs
_Pellet
p6400
(dp6401
g9
I10
sg26
I0
sg7
Nsg8
I100
sg11
(lp6402
(I9
I19
tp6403
a(I10
I17
tp6404
a(I10
I18
tp6405
a(I10
I19
tp6406
a(I11
I17
tp6407
a(I11
I18
tp6408
a(I11
I19
tp6409
a(I12
I16
tp6410
a(I12
I17
tp6411
a(I12
I18
tp6412
a(I12
I19
tp6413
a(I13
I17
tp6414
a(I13
I18
tp6415
a(I13
I19
tp6416
a(I14
I17
tp6417
a(I14
I18
tp6418
a(I14
I19
tp6419
a(I15
I19
tp6420
asg32
g305
sg6
I15
sg10
I60
sg306
(lp6421
g308
asg4
I0
sg29
I100
sg30
g309
sg27
g310
sbs(I18
I7
tp6422
(ilibs
_Pellet
p6423
(dp6424
g9
I10
sg26
I0
sg7
Nsg8
I100
sg11
(lp6425
(I15
I7
tp6426
a(I16
I5
tp6427
a(I16
I6
tp6428
a(I16
I7
tp6429
a(I16
I8
tp6430
a(I16
I9
tp6431
a(I17
I5
tp6432
a(I17
I6
tp6433
a(I17
I7
tp6434
a(I17
I8
tp6435
a(I17
I9
tp6436
a(I18
I4
tp6437
a(I18
I5
tp6438
a(I18
I6
tp6439
a(I18
I7
tp6440
a(I18
I8
tp6441
a(I18
I9
tp6442
a(I18
I10
tp6443
a(I19
I5
tp6444
a(I19
I6
tp6445
a(I19
I7
tp6446
a(I19
I8
tp6447
a(I19
I9
tp6448
asg32
g305
sg6
I15
sg10
I60
sg306
(lp6449
g308
asg4
I0
sg29
I100
sg30
g309
sg27
g310
sbs(I0
I6
tp6450
(ilibs
_Pellet
p6451
(dp6452
g9
I10
sg26
I0
sg7
Nsg8
I100
sg11
(lp6453
(I0
I3
tp6454
a(I0
I4
tp6455
a(I0
I5
tp6456
a(I0
I6
tp6457
a(I0
I7
tp6458
a(I0
I8
tp6459
a(I0
I9
tp6460
a(I1
I4
tp6461
a(I1
I5
tp6462
a(I1
I6
tp6463
a(I1
I7
tp6464
a(I1
I8
tp6465
a(I2
I4
tp6466
a(I2
I5
tp6467
a(I2
I6
tp6468
a(I2
I7
tp6469
a(I2
I8
tp6470
a(I3
I6
tp6471
asg32
g305
sg6
I15
sg10
I60
sg306
(lp6472
g308
asg4
I0
sg29
I100
sg30
g309
sg27
g310
sbs(I15
I6
tp6473
(ilibs
_Pellet
p6474
(dp6475
g9
I10
sg26
I0
sg7
Nsg8
I100
sg11
(lp6476
(I12
I6
tp6477
a(I13
I4
tp6478
a(I13
I5
tp6479
a(I13
I6
tp6480
a(I13
I7
tp6481
a(I13
I8
tp6482
a(I14
I4
tp6483
a(I14
I5
tp6484
a(I14
I6
tp6485
a(I14
I7
tp6486
a(I14
I8
tp6487
a(I15
I3
tp6488
a(I15
I4
tp6489
a(I15
I5
tp6490
a(I15
I6
tp6491
a(I15
I7
tp6492
a(I15
I8
tp6493
a(I15
I9
tp6494
a(I16
I4
tp6495
a(I16
I5
tp6496
a(I16
I6
tp6497
a(I16
I7
tp6498
a(I16
I8
tp6499
a(I17
I4
tp6500
a(I17
I5
tp6501
a(I17
I6
tp6502
a(I17
I7
tp6503
a(I17
I8
tp6504
a(I18
I6
tp6505
asg32
g305
sg6
I15
sg10
I60
sg306
(lp6506
g308
asg4
I0
sg29
I100
sg30
g309
sg27
g310
sbs(I18
I18
tp6507
(ilibs
_Pellet
p6508
(dp6509
g9
I10
sg26
I0
sg7
Nsg8
I100
sg11
(lp6510
(I15
I18
tp6511
a(I16
I16
tp6512
a(I16
I17
tp6513
a(I16
I18
tp6514
a(I16
I19
tp6515
a(I17
I16
tp6516
a(I17
I17
tp6517
a(I17
I18
tp6518
a(I17
I19
tp6519
a(I18
I15
tp6520
a(I18
I16
tp6521
a(I18
I17
tp6522
a(I18
I18
tp6523
a(I18
I19
tp6524
a(I19
I16
tp6525
a(I19
I17
tp6526
a(I19
I18
tp6527
a(I19
I19
tp6528
asg32
g305
sg6
I15
sg10
I60
sg306
(lp6529
g308
asg4
I0
sg29
I100
sg30
g309
sg27
g310
sbs(I0
I9
tp6530
(ilibs
_Pellet
p6531
(dp6532
g9
I10
sg26
I0
sg7
Nsg8
I100
sg11
(lp6533
(I0
I6
tp6534
a(I0
I7
tp6535
a(I0
I8
tp6536
a(I0
I9
tp6537
a(I0
I10
tp6538
a(I0
I11
tp6539
a(I0
I12
tp6540
a(I1
I7
tp6541
a(I1
I8
tp6542
a(I1
I9
tp6543
a(I1
I10
tp6544
a(I1
I11
tp6545
a(I2
I7
tp6546
a(I2
I8
tp6547
a(I2
I9
tp6548
a(I2
I10
tp6549
a(I2
I11
tp6550
a(I3
I9
tp6551
asg32
g305
sg6
I15
sg10
I60
sg306
(lp6552
g308
asg4
I0
sg29
I100
sg30
g309
sg27
g310
sbs(I3
I4
tp6553
(ilibs
_Pellet
p6554
(dp6555
g9
I10
sg26
I0
sg7
Nsg8
I100
sg11
(lp6556
(I0
I4
tp6557
a(I1
I2
tp6558
a(I1
I3
tp6559
a(I1
I4
tp6560
a(I1
I5
tp6561
a(I1
I6
tp6562
a(I2
I2
tp6563
a(I2
I3
tp6564
a(I2
I4
tp6565
a(I2
I5
tp6566
a(I2
I6
tp6567
a(I3
I1
tp6568
a(I3
I2
tp6569
a(I3
I3
tp6570
a(I3
I4
tp6571
a(I3
I5
tp6572
a(I3
I6
tp6573
a(I3
I7
tp6574
a(I4
I2
tp6575
a(I4
I3
tp6576
a(I4
I4
tp6577
a(I4
I5
tp6578
a(I4
I6
tp6579
a(I5
I2
tp6580
a(I5
I3
tp6581
a(I5
I4
tp6582
a(I5
I5
tp6583
a(I5
I6
tp6584
a(I6
I4
tp6585
asg32
g305
sg6
I15
sg10
I60
sg306
(lp6586
g308
asg4
I0
sg29
I100
sg30
g309
sg27
g310
sbs(I2
I4
tp6587
(ilibs
_Pellet
p6588
(dp6589
g9
I10
sg26
I0
sg7
Nsg8
I100
sg11
(lp6590
(I0
I2
tp6591
a(I0
I3
tp6592
a(I0
I4
tp6593
a(I0
I5
tp6594
a(I0
I6
tp6595
a(I1
I2
tp6596
a(I1
I3
tp6597
a(I1
I4
tp6598
a(I1
I5
tp6599
a(I1
I6
tp6600
a(I2
I1
tp6601
a(I2
I2
tp6602
a(I2
I3
tp6603
a(I2
I4
tp6604
a(I2
I5
tp6605
a(I2
I6
tp6606
a(I2
I7
tp6607
a(I3
I2
tp6608
a(I3
I3
tp6609
a(I3
I4
tp6610
a(I3
I5
tp6611
a(I3
I6
tp6612
a(I4
I2
tp6613
a(I4
I3
tp6614
a(I4
I4
tp6615
a(I4
I5
tp6616
a(I4
I6
tp6617
a(I5
I4
tp6618
asg32
g305
sg6
I15
sg10
I60
sg306
(lp6619
g308
asg4
I0
sg29
I100
sg30
g309
sg27
g310
sbs(I9
I12
tp6620
(ilibs
_Pellet
p6621
(dp6622
g9
I10
sg26
I0
sg7
Nsg8
I100
sg11
(lp6623
(I6
I12
tp6624
a(I7
I10
tp6625
a(I7
I11
tp6626
a(I7
I12
tp6627
a(I7
I13
tp6628
a(I7
I14
tp6629
a(I8
I10
tp6630
a(I8
I11
tp6631
a(I8
I12
tp6632
a(I8
I13
tp6633
a(I8
I14
tp6634
a(I9
I9
tp6635
a(I9
I10
tp6636
a(I9
I11
tp6637
a(I9
I12
tp6638
a(I9
I13
tp6639
a(I9
I14
tp6640
a(I9
I15
tp6641
a(I10
I10
tp6642
a(I10
I11
tp6643
a(I10
I12
tp6644
a(I10
I13
tp6645
a(I10
I14
tp6646
a(I11
I10
tp6647
a(I11
I11
tp6648
a(I11
I12
tp6649
a(I11
I13
tp6650
a(I11
I14
tp6651
a(I12
I12
tp6652
asg32
g305
sg6
I15
sg10
I60
sg306
(lp6653
g308
asg4
I0
sg29
I100
sg30
g309
sg27
g310
sbs(I8
I4
tp6654
(ilibs
_4
p6655
(dp6656
g4
I0
sg5
I01
sg6
I200
sg7
Nsg8
I300
sg9
I40
sg10
I40
sg11
(lp6657
(I6
I4
tp6658
a(I7
I3
tp6659
a(I7
I4
tp6660
a(I7
I5
tp6661
a(I8
I2
tp6662
a(I8
I3
tp6663
a(I8
I4
tp6664
a(I8
I5
tp6665
a(I8
I6
tp6666
a(I9
I3
tp6667
a(I9
I4
tp6668
a(I9
I5
tp6669
a(I10
I4
tp6670
asg26
I30
sg27
g28
sg29
I300
sg30
g31
sg32
g33
sbs(I9
I1
tp6671
(ilibs
_Pellet
p6672
(dp6673
g9
I10
sg26
I0
sg7
Nsg8
I100
sg11
(lp6674
(I6
I1
tp6675
a(I7
I0
tp6676
a(I7
I1
tp6677
a(I7
I2
tp6678
a(I7
I3
tp6679
a(I8
I0
tp6680
a(I8
I1
tp6681
a(I8
I2
tp6682
a(I8
I3
tp6683
a(I9
I0
tp6684
a(I9
I1
tp6685
a(I9
I2
tp6686
a(I9
I3
tp6687
a(I9
I4
tp6688
a(I10
I0
tp6689
a(I10
I1
tp6690
a(I10
I2
tp6691
a(I10
I3
tp6692
a(I11
I0
tp6693
a(I11
I1
tp6694
a(I11
I2
tp6695
a(I11
I3
tp6696
a(I12
I1
tp6697
asg32
g305
sg6
I15
sg10
I60
sg306
(lp6698
g308
asg4
I0
sg29
I100
sg30
g309
sg27
g310
sbs(I6
I6
tp6699
(ilibs
_Pellet
p6700
(dp6701
g9
I10
sg26
I0
sg7
Nsg8
I100
sg11
(lp6702
(I3
I6
tp6703
a(I4
I4
tp6704
a(I4
I5
tp6705
a(I4
I6
tp6706
a(I4
I7
tp6707
a(I4
I8
tp6708
a(I5
I4
tp6709
a(I5
I5
tp6710
a(I5
I6
tp6711
a(I5
I7
tp6712
a(I5
I8
tp6713
a(I6
I3
tp6714
a(I6
I4
tp6715
a(I6
I5
tp6716
a(I6
I6
tp6717
a(I6
I7
tp6718
a(I6
I8
tp6719
a(I6
I9
tp6720
a(I7
I4
tp6721
a(I7
I5
tp6722
a(I7
I6
tp6723
a(I7
I7
tp6724
a(I7
I8
tp6725
a(I8
I4
tp6726
a(I8
I5
tp6727
a(I8
I6
tp6728
a(I8
I7
tp6729
a(I8
I8
tp6730
a(I9
I6
tp6731
asg32
g305
sg6
I15
sg10
I60
sg306
(lp6732
g308
asg4
I0
sg29
I100
sg30
g309
sg27
g310
sbs(I5
I6
tp6733
(ilibs
_Pellet
p6734
(dp6735
g9
I10
sg26
I0
sg7
Nsg8
I100
sg11
(lp6736
(I2
I6
tp6737
a(I3
I4
tp6738
a(I3
I5
tp6739
a(I3
I6
tp6740
a(I3
I7
tp6741
a(I3
I8
tp6742
a(I4
I4
tp6743
a(I4
I5
tp6744
a(I4
I6
tp6745
a(I4
I7
tp6746
a(I4
I8
tp6747
a(I5
I3
tp6748
a(I5
I4
tp6749
a(I5
I5
tp6750
a(I5
I6
tp6751
a(I5
I7
tp6752
a(I5
I8
tp6753
a(I5
I9
tp6754
a(I6
I4
tp6755
a(I6
I5
tp6756
a(I6
I6
tp6757
a(I6
I7
tp6758
a(I6
I8
tp6759
a(I7
I4
tp6760
a(I7
I5
tp6761
a(I7
I6
tp6762
a(I7
I7
tp6763
a(I7
I8
tp6764
a(I8
I6
tp6765
asg32
g305
sg6
I15
sg10
I60
sg306
(lp6766
g308
asg4
I0
sg29
I100
sg30
g309
sg27
g310
sbs(I4
I18
tp6767
(ilibs
_Pellet
p6768
(dp6769
g9
I10
sg26
I0
sg7
Nsg8
I100
sg11
(lp6770
(I1
I18
tp6771
a(I2
I16
tp6772
a(I2
I17
tp6773
a(I2
I18
tp6774
a(I2
I19
tp6775
a(I3
I16
tp6776
a(I3
I17
tp6777
a(I3
I18
tp6778
a(I3
I19
tp6779
a(I4
I15
tp6780
a(I4
I16
tp6781
a(I4
I17
tp6782
a(I4
I18
tp6783
a(I4
I19
tp6784
a(I5
I16
tp6785
a(I5
I17
tp6786
a(I5
I18
tp6787
a(I5
I19
tp6788
a(I6
I16
tp6789
a(I6
I17
tp6790
a(I6
I18
tp6791
a(I6
I19
tp6792
a(I7
I18
tp6793
asg32
g305
sg6
I15
sg10
I60
sg306
(lp6794
g308
asg4
I0
sg29
I100
sg30
g309
sg27
g310
sbs(I11
I2
tp6795
(ilibs
_Pellet
p6796
(dp6797
g9
I10
sg26
I0
sg7
Nsg8
I100
sg11
(lp6798
(I8
I2
tp6799
a(I9
I0
tp6800
a(I9
I1
tp6801
a(I9
I2
tp6802
a(I9
I3
tp6803
a(I9
I4
tp6804
a(I10
I0
tp6805
a(I10
I1
tp6806
a(I10
I2
tp6807
a(I10
I3
tp6808
a(I10
I4
tp6809
a(I11
I0
tp6810
a(I11
I1
tp6811
a(I11
I2
tp6812
a(I11
I3
tp6813
a(I11
I4
tp6814
a(I11
I5
tp6815
a(I12
I0
tp6816
a(I12
I1
tp6817
a(I12
I2
tp6818
a(I12
I3
tp6819
a(I12
I4
tp6820
a(I13
I0
tp6821
a(I13
I1
tp6822
a(I13
I2
tp6823
a(I13
I3
tp6824
a(I13
I4
tp6825
a(I14
I2
tp6826
asg32
g305
sg6
I15
sg10
I60
sg306
(lp6827
g308
asg4
I0
sg29
I100
sg30
g309
sg27
g310
sbs(I10
I6
tp6828
(ilibs
_Pellet
p6829
(dp6830
g9
I10
sg26
I0
sg7
Nsg8
I100
sg11
(lp6831
(I7
I6
tp6832
a(I8
I4
tp6833
a(I8
I5
tp6834
a(I8
I6
tp6835
a(I8
I7
tp6836
a(I8
I8
tp6837
a(I9
I4
tp6838
a(I9
I5
tp6839
a(I9
I6
tp6840
a(I9
I7
tp6841
a(I9
I8
tp6842
a(I10
I3
tp6843
a(I10
I4
tp6844
a(I10
I5
tp6845
a(I10
I6
tp6846
a(I10
I7
tp6847
a(I10
I8
tp6848
a(I10
I9
tp6849
a(I11
I4
tp6850
a(I11
I5
tp6851
a(I11
I6
tp6852
a(I11
I7
tp6853
a(I11
I8
tp6854
a(I12
I4
tp6855
a(I12
I5
tp6856
a(I12
I6
tp6857
a(I12
I7
tp6858
a(I12
I8
tp6859
a(I13
I6
tp6860
asg32
g305
sg6
I15
sg10
I60
sg306
(lp6861
g308
asg4
I0
sg29
I100
sg30
g309
sg27
g310
sbs(I16
I2
tp6862
(ilibs
_4
p6863
(dp6864
g4
I0
sg5
I01
sg6
I200
sg7
Nsg8
I300
sg9
I40
sg10
I40
sg11
(lp6865
(I14
I2
tp6866
a(I15
I1
tp6867
a(I15
I2
tp6868
a(I15
I3
tp6869
a(I16
I0
tp6870
a(I16
I1
tp6871
a(I16
I2
tp6872
a(I16
I3
tp6873
a(I16
I4
tp6874
a(I17
I1
tp6875
a(I17
I2
tp6876
a(I17
I3
tp6877
a(I18
I2
tp6878
asg26
I30
sg27
g28
sg29
I300
sg30
g31
sg32
g33
sbs(I14
I13
tp6879
(ilibs
_Pellet
p6880
(dp6881
g9
I10
sg26
I0
sg7
Nsg8
I100
sg11
(lp6882
(I11
I13
tp6883
a(I12
I11
tp6884
a(I12
I12
tp6885
a(I12
I13
tp6886
a(I12
I14
tp6887
a(I12
I15
tp6888
a(I13
I11
tp6889
a(I13
I12
tp6890
a(I13
I13
tp6891
a(I13
I14
tp6892
a(I13
I15
tp6893
a(I14
I10
tp6894
a(I14
I11
tp6895
a(I14
I12
tp6896
a(I14
I13
tp6897
a(I14
I14
tp6898
a(I14
I15
tp6899
a(I14
I16
tp6900
a(I15
I11
tp6901
a(I15
I12
tp6902
a(I15
I13
tp6903
a(I15
I14
tp6904
a(I15
I15
tp6905
a(I16
I11
tp6906
a(I16
I12
tp6907
a(I16
I13
tp6908
a(I16
I14
tp6909
a(I16
I15
tp6910
a(I17
I13
tp6911
asg32
g305
sg6
I15
sg10
I60
sg306
(lp6912
g308
asg4
I0
sg29
I100
sg30
g309
sg27
g310
sbs(I0
I16
tp6913
(ilibs
_Pellet
p6914
(dp6915
g9
I10
sg26
I0
sg7
Nsg8
I100
sg11
(lp6916
(I0
I13
tp6917
a(I0
I14
tp6918
a(I0
I15
tp6919
a(I0
I16
tp6920
a(I0
I17
tp6921
a(I0
I18
tp6922
a(I0
I19
tp6923
a(I1
I14
tp6924
a(I1
I15
tp6925
a(I1
I16
tp6926
a(I1
I17
tp6927
a(I1
I18
tp6928
a(I2
I14
tp6929
a(I2
I15
tp6930
a(I2
I16
tp6931
a(I2
I17
tp6932
a(I2
I18
tp6933
a(I3
I16
tp6934
asg32
g305
sg6
I15
sg10
I60
sg306
(lp6935
g308
asg4
I0
sg29
I100
sg30
g309
sg27
g310
sbs(I15
I8
tp6936
(ilibs
_Pellet
p6937
(dp6938
g9
I10
sg26
I0
sg7
Nsg8
I100
sg11
(lp6939
(I12
I8
tp6940
a(I13
I6
tp6941
a(I13
I7
tp6942
a(I13
I8
tp6943
a(I13
I9
tp6944
a(I13
I10
tp6945
a(I14
I6
tp6946
a(I14
I7
tp6947
a(I14
I8
tp6948
a(I14
I9
tp6949
a(I14
I10
tp6950
a(I15
I5
tp6951
a(I15
I6
tp6952
a(I15
I7
tp6953
a(I15
I8
tp6954
a(I15
I9
tp6955
a(I15
I10
tp6956
a(I15
I11
tp6957
a(I16
I6
tp6958
a(I16
I7
tp6959
a(I16
I8
tp6960
a(I16
I9
tp6961
a(I16
I10
tp6962
a(I17
I6
tp6963
a(I17
I7
tp6964
a(I17
I8
tp6965
a(I17
I9
tp6966
a(I17
I10
tp6967
a(I18
I8
tp6968
asg32
g305
sg6
I15
sg10
I60
sg306
(lp6969
g308
asg4
I0
sg29
I100
sg30
g309
sg27
g310
sbs(I14
I0
tp6970
(ilibs
_Pellet
p6971
(dp6972
g9
I10
sg26
I0
sg7
Nsg8
I100
sg11
(lp6973
(I11
I0
tp6974
a(I12
I0
tp6975
a(I12
I1
tp6976
a(I12
I2
tp6977
a(I13
I0
tp6978
a(I13
I1
tp6979
a(I13
I2
tp6980
a(I14
I0
tp6981
a(I14
I1
tp6982
a(I14
I2
tp6983
a(I14
I3
tp6984
a(I15
I0
tp6985
a(I15
I1
tp6986
a(I15
I2
tp6987
a(I16
I0
tp6988
a(I16
I1
tp6989
a(I16
I2
tp6990
a(I17
I0
tp6991
asg32
g305
sg6
I15
sg10
I60
sg306
(lp6992
g308
asg4
I0
sg29
I100
sg30
g309
sg27
g310
sbs(I13
I8
tp6993
(ilibs
_3
p6994
(dp6995
g4
I0
sg9
I20
sg26
I30
sg7
Nsg8
I300
sg6
I100
sg10
I180
sg11
(lp6996
(I4
I8
tp6997
a(I5
I4
tp6998
a(I5
I5
tp6999
a(I5
I6
tp7000
a(I5
I7
tp7001
a(I5
I8
tp7002
a(I5
I9
tp7003
a(I5
I10
tp7004
a(I5
I11
tp7005
a(I5
I12
tp7006
a(I6
I3
tp7007
a(I6
I4
tp7008
a(I6
I5
tp7009
a(I6
I6
tp7010
a(I6
I7
tp7011
a(I6
I8
tp7012
a(I6
I9
tp7013
a(I6
I10
tp7014
a(I6
I11
tp7015
a(I6
I12
tp7016
a(I6
I13
tp7017
a(I7
I2
tp7018
a(I7
I3
tp7019
a(I7
I4
tp7020
a(I7
I5
tp7021
a(I7
I6
tp7022
a(I7
I7
tp7023
a(I7
I8
tp7024
a(I7
I9
tp7025
a(I7
I10
tp7026
a(I7
I11
tp7027
a(I7
I12
tp7028
a(I7
I13
tp7029
a(I7
I14
tp7030
a(I8
I1
tp7031
a(I8
I2
tp7032
a(I8
I3
tp7033
a(I8
I4
tp7034
a(I8
I5
tp7035
a(I8
I6
tp7036
a(I8
I7
tp7037
a(I8
I8
tp7038
a(I8
I9
tp7039
a(I8
I10
tp7040
a(I8
I11
tp7041
a(I8
I12
tp7042
a(I8
I13
tp7043
a(I8
I14
tp7044
a(I8
I15
tp7045
a(I9
I0
tp7046
a(I9
I1
tp7047
a(I9
I2
tp7048
a(I9
I3
tp7049
a(I9
I4
tp7050
a(I9
I5
tp7051
a(I9
I6
tp7052
a(I9
I7
tp7053
a(I9
I8
tp7054
a(I9
I9
tp7055
a(I9
I10
tp7056
a(I9
I11
tp7057
a(I9
I12
tp7058
a(I9
I13
tp7059
a(I9
I14
tp7060
a(I9
I15
tp7061
a(I9
I16
tp7062
a(I10
I0
tp7063
a(I10
I1
tp7064
a(I10
I2
tp7065
a(I10
I3
tp7066
a(I10
I4
tp7067
a(I10
I5
tp7068
a(I10
I6
tp7069
a(I10
I7
tp7070
a(I10
I8
tp7071
a(I10
I9
tp7072
a(I10
I10
tp7073
a(I10
I11
tp7074
a(I10
I12
tp7075
a(I10
I13
tp7076
a(I10
I14
tp7077
a(I10
I15
tp7078
a(I10
I16
tp7079
a(I11
I0
tp7080
a(I11
I1
tp7081
a(I11
I2
tp7082
a(I11
I3
tp7083
a(I11
I4
tp7084
a(I11
I5
tp7085
a(I11
I6
tp7086
a(I11
I7
tp7087
a(I11
I8
tp7088
a(I11
I9
tp7089
a(I11
I10
tp7090
a(I11
I11
tp7091
a(I11
I12
tp7092
a(I11
I13
tp7093
a(I11
I14
tp7094
a(I11
I15
tp7095
a(I11
I16
tp7096
a(I12
I0
tp7097
a(I12
I1
tp7098
a(I12
I2
tp7099
a(I12
I3
tp7100
a(I12
I4
tp7101
a(I12
I5
tp7102
a(I12
I6
tp7103
a(I12
I7
tp7104
a(I12
I8
tp7105
a(I12
I9
tp7106
a(I12
I10
tp7107
a(I12
I11
tp7108
a(I12
I12
tp7109
a(I12
I13
tp7110
a(I12
I14
tp7111
a(I12
I15
tp7112
a(I12
I16
tp7113
a(I13
I0
tp7114
a(I13
I1
tp7115
a(I13
I2
tp7116
a(I13
I3
tp7117
a(I13
I4
tp7118
a(I13
I5
tp7119
a(I13
I6
tp7120
a(I13
I7
tp7121
a(I13
I8
tp7122
a(I13
I9
tp7123
a(I13
I10
tp7124
a(I13
I11
tp7125
a(I13
I12
tp7126
a(I13
I13
tp7127
a(I13
I14
tp7128
a(I13
I15
tp7129
a(I13
I16
tp7130
a(I13
I17
tp7131
a(I14
I0
tp7132
a(I14
I1
tp7133
a(I14
I2
tp7134
a(I14
I3
tp7135
a(I14
I4
tp7136
a(I14
I5
tp7137
a(I14
I6
tp7138
a(I14
I7
tp7139
a(I14
I8
tp7140
a(I14
I9
tp7141
a(I14
I10
tp7142
a(I14
I11
tp7143
a(I14
I12
tp7144
a(I14
I13
tp7145
a(I14
I14
tp7146
a(I14
I15
tp7147
a(I14
I16
tp7148
a(I15
I0
tp7149
a(I15
I1
tp7150
a(I15
I2
tp7151
a(I15
I3
tp7152
a(I15
I4
tp7153
a(I15
I5
tp7154
a(I15
I6
tp7155
a(I15
I7
tp7156
a(I15
I8
tp7157
a(I15
I9
tp7158
a(I15
I10
tp7159
a(I15
I11
tp7160
a(I15
I12
tp7161
a(I15
I13
tp7162
a(I15
I14
tp7163
a(I15
I15
tp7164
a(I15
I16
tp7165
a(I16
I0
tp7166
a(I16
I1
tp7167
a(I16
I2
tp7168
a(I16
I3
tp7169
a(I16
I4
tp7170
a(I16
I5
tp7171
a(I16
I6
tp7172
a(I16
I7
tp7173
a(I16
I8
tp7174
a(I16
I9
tp7175
a(I16
I10
tp7176
a(I16
I11
tp7177
a(I16
I12
tp7178
a(I16
I13
tp7179
a(I16
I14
tp7180
a(I16
I15
tp7181
a(I16
I16
tp7182
a(I17
I0
tp7183
a(I17
I1
tp7184
a(I17
I2
tp7185
a(I17
I3
tp7186
a(I17
I4
tp7187
a(I17
I5
tp7188
a(I17
I6
tp7189
a(I17
I7
tp7190
a(I17
I8
tp7191
a(I17
I9
tp7192
a(I17
I10
tp7193
a(I17
I11
tp7194
a(I17
I12
tp7195
a(I17
I13
tp7196
a(I17
I14
tp7197
a(I17
I15
tp7198
a(I17
I16
tp7199
a(I18
I1
tp7200
a(I18
I2
tp7201
a(I18
I3
tp7202
a(I18
I4
tp7203
a(I18
I5
tp7204
a(I18
I6
tp7205
a(I18
I7
tp7206
a(I18
I8
tp7207
a(I18
I9
tp7208
a(I18
I10
tp7209
a(I18
I11
tp7210
a(I18
I12
tp7211
a(I18
I13
tp7212
a(I18
I14
tp7213
a(I18
I15
tp7214
a(I19
I2
tp7215
a(I19
I3
tp7216
a(I19
I4
tp7217
a(I19
I5
tp7218
a(I19
I6
tp7219
a(I19
I7
tp7220
a(I19
I8
tp7221
a(I19
I9
tp7222
a(I19
I10
tp7223
a(I19
I11
tp7224
a(I19
I12
tp7225
a(I19
I13
tp7226
a(I19
I14
tp7227
asg27
g270
sg29
I300
sg30
g271
sg32
g272
sbs(I18
I8
tp7228
(ilibs
_Pellet
p7229
(dp7230
g9
I10
sg26
I0
sg7
Nsg8
I100
sg11
(lp7231
(I15
I8
tp7232
a(I16
I6
tp7233
a(I16
I7
tp7234
a(I16
I8
tp7235
a(I16
I9
tp7236
a(I16
I10
tp7237
a(I17
I6
tp7238
a(I17
I7
tp7239
a(I17
I8
tp7240
a(I17
I9
tp7241
a(I17
I10
tp7242
a(I18
I5
tp7243
a(I18
I6
tp7244
a(I18
I7
tp7245
a(I18
I8
tp7246
a(I18
I9
tp7247
a(I18
I10
tp7248
a(I18
I11
tp7249
a(I19
I6
tp7250
a(I19
I7
tp7251
a(I19
I8
tp7252
a(I19
I9
tp7253
a(I19
I10
tp7254
asg32
g305
sg6
I15
sg10
I60
sg306
(lp7255
g308
asg4
I0
sg29
I100
sg30
g309
sg27
g310
sbs(I0
I3
tp7256
(ilibs
_Pellet
p7257
(dp7258
g9
I10
sg26
I0
sg7
Nsg8
I100
sg11
(lp7259
(I0
I0
tp7260
a(I0
I1
tp7261
a(I0
I2
tp7262
a(I0
I3
tp7263
a(I0
I4
tp7264
a(I0
I5
tp7265
a(I0
I6
tp7266
a(I1
I1
tp7267
a(I1
I2
tp7268
a(I1
I3
tp7269
a(I1
I4
tp7270
a(I1
I5
tp7271
a(I2
I1
tp7272
a(I2
I2
tp7273
a(I2
I3
tp7274
a(I2
I4
tp7275
a(I2
I5
tp7276
a(I3
I3
tp7277
asg32
g305
sg6
I15
sg10
I60
sg306
(lp7278
g308
asg4
I0
sg29
I100
sg30
g309
sg27
g310
sbs(I15
I5
tp7279
(ilibs
_Pellet
p7280
(dp7281
g9
I10
sg26
I0
sg7
Nsg8
I100
sg11
(lp7282
(I12
I5
tp7283
a(I13
I3
tp7284
a(I13
I4
tp7285
a(I13
I5
tp7286
a(I13
I6
tp7287
a(I13
I7
tp7288
a(I14
I3
tp7289
a(I14
I4
tp7290
a(I14
I5
tp7291
a(I14
I6
tp7292
a(I14
I7
tp7293
a(I15
I2
tp7294
a(I15
I3
tp7295
a(I15
I4
tp7296
a(I15
I5
tp7297
a(I15
I6
tp7298
a(I15
I7
tp7299
a(I15
I8
tp7300
a(I16
I3
tp7301
a(I16
I4
tp7302
a(I16
I5
tp7303
a(I16
I6
tp7304
a(I16
I7
tp7305
a(I17
I3
tp7306
a(I17
I4
tp7307
a(I17
I5
tp7308
a(I17
I6
tp7309
a(I17
I7
tp7310
a(I18
I5
tp7311
asg32
g305
sg6
I15
sg10
I60
sg306
(lp7312
g308
asg4
I0
sg29
I100
sg30
g309
sg27
g310
sbs(I8
I14
tp7313
(ilibs
_Aqua
p7314
(dp7315
g9
I5
sg26
I30
sg7
Nsg8
I70
sg6
I30
sg10
I120
sg11
(lp7316
(I2
I14
tp7317
a(I3
I11
tp7318
a(I3
I12
tp7319
a(I3
I13
tp7320
a(I3
I14
tp7321
a(I3
I15
tp7322
a(I3
I16
tp7323
a(I3
I17
tp7324
a(I4
I10
tp7325
a(I4
I11
tp7326
a(I4
I12
tp7327
a(I4
I13
tp7328
a(I4
I14
tp7329
a(I4
I15
tp7330
a(I4
I16
tp7331
a(I4
I17
tp7332
a(I4
I18
tp7333
a(I5
I9
tp7334
a(I5
I10
tp7335
a(I5
I11
tp7336
a(I5
I12
tp7337
a(I5
I13
tp7338
a(I5
I14
tp7339
a(I5
I15
tp7340
a(I5
I16
tp7341
a(I5
I17
tp7342
a(I5
I18
tp7343
a(I5
I19
tp7344
a(I6
I9
tp7345
a(I6
I10
tp7346
a(I6
I11
tp7347
a(I6
I12
tp7348
a(I6
I13
tp7349
a(I6
I14
tp7350
a(I6
I15
tp7351
a(I6
I16
tp7352
a(I6
I17
tp7353
a(I6
I18
tp7354
a(I6
I19
tp7355
a(I7
I9
tp7356
a(I7
I10
tp7357
a(I7
I11
tp7358
a(I7
I12
tp7359
a(I7
I13
tp7360
a(I7
I14
tp7361
a(I7
I15
tp7362
a(I7
I16
tp7363
a(I7
I17
tp7364
a(I7
I18
tp7365
a(I7
I19
tp7366
a(I8
I8
tp7367
a(I8
I9
tp7368
a(I8
I10
tp7369
a(I8
I11
tp7370
a(I8
I12
tp7371
a(I8
I13
tp7372
a(I8
I14
tp7373
a(I8
I15
tp7374
a(I8
I16
tp7375
a(I8
I17
tp7376
a(I8
I18
tp7377
a(I8
I19
tp7378
a(I9
I9
tp7379
a(I9
I10
tp7380
a(I9
I11
tp7381
a(I9
I12
tp7382
a(I9
I13
tp7383
a(I9
I14
tp7384
a(I9
I15
tp7385
a(I9
I16
tp7386
a(I9
I17
tp7387
a(I9
I18
tp7388
a(I9
I19
tp7389
a(I10
I9
tp7390
a(I10
I10
tp7391
a(I10
I11
tp7392
a(I10
I12
tp7393
a(I10
I13
tp7394
a(I10
I14
tp7395
a(I10
I15
tp7396
a(I10
I16
tp7397
a(I10
I17
tp7398
a(I10
I18
tp7399
a(I10
I19
tp7400
a(I11
I9
tp7401
a(I11
I10
tp7402
a(I11
I11
tp7403
a(I11
I12
tp7404
a(I11
I13
tp7405
a(I11
I14
tp7406
a(I11
I15
tp7407
a(I11
I16
tp7408
a(I11
I17
tp7409
a(I11
I18
tp7410
a(I11
I19
tp7411
a(I12
I10
tp7412
a(I12
I11
tp7413
a(I12
I12
tp7414
a(I12
I13
tp7415
a(I12
I14
tp7416
a(I12
I15
tp7417
a(I12
I16
tp7418
a(I12
I17
tp7419
a(I12
I18
tp7420
a(I13
I11
tp7421
a(I13
I12
tp7422
a(I13
I13
tp7423
a(I13
I14
tp7424
a(I13
I15
tp7425
a(I13
I16
tp7426
a(I13
I17
tp7427
a(I14
I14
tp7428
asg27
g1685
sg4
I0
sg29
I70
sg30
g1686
sg32
g1687
sbs(I4
I9
tp7429
(ilibs
_Pellet
p7430
(dp7431
g9
I10
sg26
I0
sg7
Nsg8
I100
sg11
(lp7432
(I1
I9
tp7433
a(I2
I7
tp7434
a(I2
I8
tp7435
a(I2
I9
tp7436
a(I2
I10
tp7437
a(I2
I11
tp7438
a(I3
I7
tp7439
a(I3
I8
tp7440
a(I3
I9
tp7441
a(I3
I10
tp7442
a(I3
I11
tp7443
a(I4
I6
tp7444
a(I4
I7
tp7445
a(I4
I8
tp7446
a(I4
I9
tp7447
a(I4
I10
tp7448
a(I4
I11
tp7449
a(I4
I12
tp7450
a(I5
I7
tp7451
a(I5
I8
tp7452
a(I5
I9
tp7453
a(I5
I10
tp7454
a(I5
I11
tp7455
a(I6
I7
tp7456
a(I6
I8
tp7457
a(I6
I9
tp7458
a(I6
I10
tp7459
a(I6
I11
tp7460
a(I7
I9
tp7461
asg32
g305
sg6
I15
sg10
I60
sg306
(lp7462
g308
asg4
I0
sg29
I100
sg30
g309
sg27
g310
sbs(I2
I9
tp7463
(ilibs
_4
p7464
(dp7465
g4
I0
sg5
I01
sg6
I200
sg7
Nsg8
I300
sg9
I40
sg10
I40
sg11
(lp7466
(I0
I9
tp7467
a(I1
I8
tp7468
a(I1
I9
tp7469
a(I1
I10
tp7470
a(I2
I7
tp7471
a(I2
I8
tp7472
a(I2
I9
tp7473
a(I2
I10
tp7474
a(I2
I11
tp7475
a(I3
I8
tp7476
a(I3
I9
tp7477
a(I3
I10
tp7478
a(I4
I9
tp7479
asg26
I30
sg27
g28
sg29
I300
sg30
g31
sg32
g33
sbs(I9
I15
tp7480
(ilibs
_Pellet
p7481
(dp7482
g9
I10
sg26
I0
sg7
Nsg8
I100
sg11
(lp7483
(I6
I15
tp7484
a(I7
I13
tp7485
a(I7
I14
tp7486
a(I7
I15
tp7487
a(I7
I16
tp7488
a(I7
I17
tp7489
a(I8
I13
tp7490
a(I8
I14
tp7491
a(I8
I15
tp7492
a(I8
I16
tp7493
a(I8
I17
tp7494
a(I9
I12
tp7495
a(I9
I13
tp7496
a(I9
I14
tp7497
a(I9
I15
tp7498
a(I9
I16
tp7499
a(I9
I17
tp7500
a(I9
I18
tp7501
a(I10
I13
tp7502
a(I10
I14
tp7503
a(I10
I15
tp7504
a(I10
I16
tp7505
a(I10
I17
tp7506
a(I11
I13
tp7507
a(I11
I14
tp7508
a(I11
I15
tp7509
a(I11
I16
tp7510
a(I11
I17
tp7511
a(I12
I15
tp7512
asg32
g305
sg6
I15
sg10
I60
sg306
(lp7513
g308
asg4
I0
sg29
I100
sg30
g309
sg27
g310
sbs(I4
I4
tp7514
(ilibs
_4
p7515
(dp7516
g4
I0
sg5
I01
sg6
I200
sg7
Nsg8
I300
sg9
I40
sg10
I40
sg11
(lp7517
(I2
I4
tp7518
a(I3
I3
tp7519
a(I3
I4
tp7520
a(I3
I5
tp7521
a(I4
I2
tp7522
a(I4
I3
tp7523
a(I4
I4
tp7524
a(I4
I5
tp7525
a(I4
I6
tp7526
a(I5
I3
tp7527
a(I5
I4
tp7528
a(I5
I5
tp7529
a(I6
I4
tp7530
asg26
I30
sg27
g28
sg29
I300
sg30
g31
sg32
g33
sbs(I10
I12
tp7531
(ilibs
_4
p7532
(dp7533
g4
I0
sg5
I01
sg6
I200
sg7
Nsg8
I300
sg9
I40
sg10
I40
sg11
(lp7534
(I8
I12
tp7535
a(I9
I11
tp7536
a(I9
I12
tp7537
a(I9
I13
tp7538
a(I10
I10
tp7539
a(I10
I11
tp7540
a(I10
I12
tp7541
a(I10
I13
tp7542
a(I10
I14
tp7543
a(I11
I11
tp7544
a(I11
I12
tp7545
a(I11
I13
tp7546
a(I12
I12
tp7547
asg26
I30
sg27
g28
sg29
I300
sg30
g31
sg32
g33
sbs(I6
I3
tp7548
(ilibs
_Pellet
p7549
(dp7550
g9
I10
sg26
I0
sg7
Nsg8
I100
sg11
(lp7551
(I3
I3
tp7552
a(I4
I1
tp7553
a(I4
I2
tp7554
a(I4
I3
tp7555
a(I4
I4
tp7556
a(I4
I5
tp7557
a(I5
I1
tp7558
a(I5
I2
tp7559
a(I5
I3
tp7560
a(I5
I4
tp7561
a(I5
I5
tp7562
a(I6
I0
tp7563
a(I6
I1
tp7564
a(I6
I2
tp7565
a(I6
I3
tp7566
a(I6
I4
tp7567
a(I6
I5
tp7568
a(I6
I6
tp7569
a(I7
I1
tp7570
a(I7
I2
tp7571
a(I7
I3
tp7572
a(I7
I4
tp7573
a(I7
I5
tp7574
a(I8
I1
tp7575
a(I8
I2
tp7576
a(I8
I3
tp7577
a(I8
I4
tp7578
a(I8
I5
tp7579
a(I9
I3
tp7580
asg32
g305
sg6
I15
sg10
I60
sg306
(lp7581
g308
asg4
I0
sg29
I100
sg30
g309
sg27
g310
sbs(I11
I1
tp7582
(ilibs
_Pellet
p7583
(dp7584
g9
I10
sg26
I0
sg7
Nsg8
I100
sg11
(lp7585
(I8
I1
tp7586
a(I9
I0
tp7587
a(I9
I1
tp7588
a(I9
I2
tp7589
a(I9
I3
tp7590
a(I10
I0
tp7591
a(I10
I1
tp7592
a(I10
I2
tp7593
a(I10
I3
tp7594
a(I11
I0
tp7595
a(I11
I1
tp7596
a(I11
I2
tp7597
a(I11
I3
tp7598
a(I11
I4
tp7599
a(I12
I0
tp7600
a(I12
I1
tp7601
a(I12
I2
tp7602
a(I12
I3
tp7603
a(I13
I0
tp7604
a(I13
I1
tp7605
a(I13
I2
tp7606
a(I13
I3
tp7607
a(I14
I1
tp7608
asg32
g305
sg6
I15
sg10
I60
sg306
(lp7609
g308
asg4
I0
sg29
I100
sg30
g309
sg27
g310
sbs(I9
I17
tp7610
(ilibs
_Pellet
p7611
(dp7612
g9
I10
sg26
I0
sg7
Nsg8
I100
sg11
(lp7613
(I6
I17
tp7614
a(I7
I15
tp7615
a(I7
I16
tp7616
a(I7
I17
tp7617
a(I7
I18
tp7618
a(I7
I19
tp7619
a(I8
I15
tp7620
a(I8
I16
tp7621
a(I8
I17
tp7622
a(I8
I18
tp7623
a(I8
I19
tp7624
a(I9
I14
tp7625
a(I9
I15
tp7626
a(I9
I16
tp7627
a(I9
I17
tp7628
a(I9
I18
tp7629
a(I9
I19
tp7630
a(I10
I15
tp7631
a(I10
I16
tp7632
a(I10
I17
tp7633
a(I10
I18
tp7634
a(I10
I19
tp7635
a(I11
I15
tp7636
a(I11
I16
tp7637
a(I11
I17
tp7638
a(I11
I18
tp7639
a(I11
I19
tp7640
a(I12
I17
tp7641
asg32
g305
sg6
I15
sg10
I60
sg306
(lp7642
g308
asg4
I0
sg29
I100
sg30
g309
sg27
g310
sbs(I16
I15
tp7643
(ilibs
_Pellet
p7644
(dp7645
g9
I10
sg26
I0
sg7
Nsg8
I100
sg11
(lp7646
(I13
I15
tp7647
a(I14
I13
tp7648
a(I14
I14
tp7649
a(I14
I15
tp7650
a(I14
I16
tp7651
a(I14
I17
tp7652
a(I15
I13
tp7653
a(I15
I14
tp7654
a(I15
I15
tp7655
a(I15
I16
tp7656
a(I15
I17
tp7657
a(I16
I12
tp7658
a(I16
I13
tp7659
a(I16
I14
tp7660
a(I16
I15
tp7661
a(I16
I16
tp7662
a(I16
I17
tp7663
a(I16
I18
tp7664
a(I17
I13
tp7665
a(I17
I14
tp7666
a(I17
I15
tp7667
a(I17
I16
tp7668
a(I17
I17
tp7669
a(I18
I13
tp7670
a(I18
I14
tp7671
a(I18
I15
tp7672
a(I18
I16
tp7673
a(I18
I17
tp7674
a(I19
I15
tp7675
asg32
g305
sg6
I15
sg10
I60
sg306
(lp7676
g308
asg4
I0
sg29
I100
sg30
g309
sg27
g310
sbs(I12
I10
tp7677
(ilibs
_Pellet
p7678
(dp7679
g9
I10
sg26
I0
sg7
Nsg8
I100
sg11
(lp7680
(I9
I10
tp7681
a(I10
I8
tp7682
a(I10
I9
tp7683
a(I10
I10
tp7684
a(I10
I11
tp7685
a(I10
I12
tp7686
a(I11
I8
tp7687
a(I11
I9
tp7688
a(I11
I10
tp7689
a(I11
I11
tp7690
a(I11
I12
tp7691
a(I12
I7
tp7692
a(I12
I8
tp7693
a(I12
I9
tp7694
a(I12
I10
tp7695
a(I12
I11
tp7696
a(I12
I12
tp7697
a(I12
I13
tp7698
a(I13
I8
tp7699
a(I13
I9
tp7700
a(I13
I10
tp7701
a(I13
I11
tp7702
a(I13
I12
tp7703
a(I14
I8
tp7704
a(I14
I9
tp7705
a(I14
I10
tp7706
a(I14
I11
tp7707
a(I14
I12
tp7708
a(I15
I10
tp7709
asg32
g305
sg6
I15
sg10
I60
sg306
(lp7710
g308
asg4
I0
sg29
I100
sg30
g309
sg27
g310
sbs(I11
I18
tp7711
(ilibs
_Pellet
p7712
(dp7713
g9
I10
sg26
I0
sg7
Nsg8
I100
sg11
(lp7714
(I8
I18
tp7715
a(I9
I16
tp7716
a(I9
I17
tp7717
a(I9
I18
tp7718
a(I9
I19
tp7719
a(I10
I16
tp7720
a(I10
I17
tp7721
a(I10
I18
tp7722
a(I10
I19
tp7723
a(I11
I15
tp7724
a(I11
I16
tp7725
a(I11
I17
tp7726
a(I11
I18
tp7727
a(I11
I19
tp7728
a(I12
I16
tp7729
a(I12
I17
tp7730
a(I12
I18
tp7731
a(I12
I19
tp7732
a(I13
I16
tp7733
a(I13
I17
tp7734
a(I13
I18
tp7735
a(I13
I19
tp7736
a(I14
I18
tp7737
asg32
g305
sg6
I15
sg10
I60
sg306
(lp7738
g308
asg4
I0
sg29
I100
sg30
g309
sg27
g310
sbs(I15
I15
tp7739
(ilibs
_Pellet
p7740
(dp7741
g9
I10
sg26
I0
sg7
Nsg8
I100
sg11
(lp7742
(I12
I15
tp7743
a(I13
I13
tp7744
a(I13
I14
tp7745
a(I13
I15
tp7746
a(I13
I16
tp7747
a(I13
I17
tp7748
a(I14
I13
tp7749
a(I14
I14
tp7750
a(I14
I15
tp7751
a(I14
I16
tp7752
a(I14
I17
tp7753
a(I15
I12
tp7754
a(I15
I13
tp7755
a(I15
I14
tp7756
a(I15
I15
tp7757
a(I15
I16
tp7758
a(I15
I17
tp7759
a(I15
I18
tp7760
a(I16
I13
tp7761
a(I16
I14
tp7762
a(I16
I15
tp7763
a(I16
I16
tp7764
a(I16
I17
tp7765
a(I17
I13
tp7766
a(I17
I14
tp7767
a(I17
I15
tp7768
a(I17
I16
tp7769
a(I17
I17
tp7770
a(I18
I15
tp7771
asg32
g305
sg6
I15
sg10
I60
sg306
(lp7772
g308
asg4
I0
sg29
I100
sg30
g309
sg27
g310
sbs(I2
I16
tp7773
(ilibs
_Pellet
p7774
(dp7775
g9
I10
sg26
I0
sg7
Nsg8
I100
sg11
(lp7776
(I0
I14
tp7777
a(I0
I15
tp7778
a(I0
I16
tp7779
a(I0
I17
tp7780
a(I0
I18
tp7781
a(I1
I14
tp7782
a(I1
I15
tp7783
a(I1
I16
tp7784
a(I1
I17
tp7785
a(I1
I18
tp7786
a(I2
I13
tp7787
a(I2
I14
tp7788
a(I2
I15
tp7789
a(I2
I16
tp7790
a(I2
I17
tp7791
a(I2
I18
tp7792
a(I2
I19
tp7793
a(I3
I14
tp7794
a(I3
I15
tp7795
a(I3
I16
tp7796
a(I3
I17
tp7797
a(I3
I18
tp7798
a(I4
I14
tp7799
a(I4
I15
tp7800
a(I4
I16
tp7801
a(I4
I17
tp7802
a(I4
I18
tp7803
a(I5
I16
tp7804
asg32
g305
sg6
I15
sg10
I60
sg306
(lp7805
g308
asg4
I0
sg29
I100
sg30
g309
sg27
g310
sbs(I18
I13
tp7806
(ilibs
_Pellet
p7807
(dp7808
g9
I10
sg26
I0
sg7
Nsg8
I100
sg11
(lp7809
(I15
I13
tp7810
a(I16
I11
tp7811
a(I16
I12
tp7812
a(I16
I13
tp7813
a(I16
I14
tp7814
a(I16
I15
tp7815
a(I17
I11
tp7816
a(I17
I12
tp7817
a(I17
I13
tp7818
a(I17
I14
tp7819
a(I17
I15
tp7820
a(I18
I10
tp7821
a(I18
I11
tp7822
a(I18
I12
tp7823
a(I18
I13
tp7824
a(I18
I14
tp7825
a(I18
I15
tp7826
a(I18
I16
tp7827
a(I19
I11
tp7828
a(I19
I12
tp7829
a(I19
I13
tp7830
a(I19
I14
tp7831
a(I19
I15
tp7832
asg32
g305
sg6
I15
sg10
I60
sg306
(lp7833
g308
asg4
I0
sg29
I100
sg30
g309
sg27
g310
sbs(I0
I0
tp7834
(ilibs
_Pellet
p7835
(dp7836
g9
I10
sg26
I0
sg7
Nsg8
I100
sg11
(lp7837
(I0
I0
tp7838
a(I0
I1
tp7839
a(I0
I2
tp7840
a(I0
I3
tp7841
a(I1
I0
tp7842
a(I1
I1
tp7843
a(I1
I2
tp7844
a(I2
I0
tp7845
a(I2
I1
tp7846
a(I2
I2
tp7847
a(I3
I0
tp7848
asg32
g305
sg6
I15
sg10
I60
sg306
(lp7849
g308
asg4
I0
sg29
I100
sg30
g309
sg27
g310
sbs(I3
I13
tp7850
(ilibs
_Pellet
p7851
(dp7852
g9
I10
sg26
I0
sg7
Nsg8
I100
sg11
(lp7853
(I0
I13
tp7854
a(I1
I11
tp7855
a(I1
I12
tp7856
a(I1
I13
tp7857
a(I1
I14
tp7858
a(I1
I15
tp7859
a(I2
I11
tp7860
a(I2
I12
tp7861
a(I2
I13
tp7862
a(I2
I14
tp7863
a(I2
I15
tp7864
a(I3
I10
tp7865
a(I3
I11
tp7866
a(I3
I12
tp7867
a(I3
I13
tp7868
a(I3
I14
tp7869
a(I3
I15
tp7870
a(I3
I16
tp7871
a(I4
I11
tp7872
a(I4
I12
tp7873
a(I4
I13
tp7874
a(I4
I14
tp7875
a(I4
I15
tp7876
a(I5
I11
tp7877
a(I5
I12
tp7878
a(I5
I13
tp7879
a(I5
I14
tp7880
a(I5
I15
tp7881
a(I6
I13
tp7882
asg32
g305
sg6
I15
sg10
I60
sg306
(lp7883
g308
asg4
I0
sg29
I100
sg30
g309
sg27
g310
sbs(I8
I11
tp7884
(ilibs
_Aqua
p7885
(dp7886
g9
I5
sg26
I30
sg7
Nsg8
I70
sg6
I30
sg10
I120
sg11
(lp7887
(I2
I11
tp7888
a(I3
I8
tp7889
a(I3
I9
tp7890
a(I3
I10
tp7891
a(I3
I11
tp7892
a(I3
I12
tp7893
a(I3
I13
tp7894
a(I3
I14
tp7895
a(I4
I7
tp7896
a(I4
I8
tp7897
a(I4
I9
tp7898
a(I4
I10
tp7899
a(I4
I11
tp7900
a(I4
I12
tp7901
a(I4
I13
tp7902
a(I4
I14
tp7903
a(I4
I15
tp7904
a(I5
I6
tp7905
a(I5
I7
tp7906
a(I5
I8
tp7907
a(I5
I9
tp7908
a(I5
I10
tp7909
a(I5
I11
tp7910
a(I5
I12
tp7911
a(I5
I13
tp7912
a(I5
I14
tp7913
a(I5
I15
tp7914
a(I5
I16
tp7915
a(I6
I6
tp7916
a(I6
I7
tp7917
a(I6
I8
tp7918
a(I6
I9
tp7919
a(I6
I10
tp7920
a(I6
I11
tp7921
a(I6
I12
tp7922
a(I6
I13
tp7923
a(I6
I14
tp7924
a(I6
I15
tp7925
a(I6
I16
tp7926
a(I7
I6
tp7927
a(I7
I7
tp7928
a(I7
I8
tp7929
a(I7
I9
tp7930
a(I7
I10
tp7931
a(I7
I11
tp7932
a(I7
I12
tp7933
a(I7
I13
tp7934
a(I7
I14
tp7935
a(I7
I15
tp7936
a(I7
I16
tp7937
a(I8
I5
tp7938
a(I8
I6
tp7939
a(I8
I7
tp7940
a(I8
I8
tp7941
a(I8
I9
tp7942
a(I8
I10
tp7943
a(I8
I11
tp7944
a(I8
I12
tp7945
a(I8
I13
tp7946
a(I8
I14
tp7947
a(I8
I15
tp7948
a(I8
I16
tp7949
a(I8
I17
tp7950
a(I9
I6
tp7951
a(I9
I7
tp7952
a(I9
I8
tp7953
a(I9
I9
tp7954
a(I9
I10
tp7955
a(I9
I11
tp7956
a(I9
I12
tp7957
a(I9
I13
tp7958
a(I9
I14
tp7959
a(I9
I15
tp7960
a(I9
I16
tp7961
a(I10
I6
tp7962
a(I10
I7
tp7963
a(I10
I8
tp7964
a(I10
I9
tp7965
a(I10
I10
tp7966
a(I10
I11
tp7967
a(I10
I12
tp7968
a(I10
I13
tp7969
a(I10
I14
tp7970
a(I10
I15
tp7971
a(I10
I16
tp7972
a(I11
I6
tp7973
a(I11
I7
tp7974
a(I11
I8
tp7975
a(I11
I9
tp7976
a(I11
I10
tp7977
a(I11
I11
tp7978
a(I11
I12
tp7979
a(I11
I13
tp7980
a(I11
I14
tp7981
a(I11
I15
tp7982
a(I11
I16
tp7983
a(I12
I7
tp7984
a(I12
I8
tp7985
a(I12
I9
tp7986
a(I12
I10
tp7987
a(I12
I11
tp7988
a(I12
I12
tp7989
a(I12
I13
tp7990
a(I12
I14
tp7991
a(I12
I15
tp7992
a(I13
I8
tp7993
a(I13
I9
tp7994
a(I13
I10
tp7995
a(I13
I11
tp7996
a(I13
I12
tp7997
a(I13
I13
tp7998
a(I13
I14
tp7999
a(I14
I11
tp8000
asg27
g1685
sg4
I0
sg29
I70
sg30
g1686
sg32
g1687
sbs(I5
I15
tp8001
(ilibs
_Pellet
p8002
(dp8003
g9
I10
sg26
I0
sg7
Nsg8
I100
sg11
(lp8004
(I2
I15
tp8005
a(I3
I13
tp8006
a(I3
I14
tp8007
a(I3
I15
tp8008
a(I3
I16
tp8009
a(I3
I17
tp8010
a(I4
I13
tp8011
a(I4
I14
tp8012
a(I4
I15
tp8013
a(I4
I16
tp8014
a(I4
I17
tp8015
a(I5
I12
tp8016
a(I5
I13
tp8017
a(I5
I14
tp8018
a(I5
I15
tp8019
a(I5
I16
tp8020
a(I5
I17
tp8021
a(I5
I18
tp8022
a(I6
I13
tp8023
a(I6
I14
tp8024
a(I6
I15
tp8025
a(I6
I16
tp8026
a(I6
I17
tp8027
a(I7
I13
tp8028
a(I7
I14
tp8029
a(I7
I15
tp8030
a(I7
I16
tp8031
a(I7
I17
tp8032
a(I8
I15
tp8033
asg32
g305
sg6
I15
sg10
I60
sg306
(lp8034
g308
asg4
I0
sg29
I100
sg30
g309
sg27
g310
sbs(I18
I17
tp8035
(ilibs
_Pellet
p8036
(dp8037
g9
I10
sg26
I0
sg7
Nsg8
I100
sg11
(lp8038
(I15
I17
tp8039
a(I16
I15
tp8040
a(I16
I16
tp8041
a(I16
I17
tp8042
a(I16
I18
tp8043
a(I16
I19
tp8044
a(I17
I15
tp8045
a(I17
I16
tp8046
a(I17
I17
tp8047
a(I17
I18
tp8048
a(I17
I19
tp8049
a(I18
I14
tp8050
a(I18
I15
tp8051
a(I18
I16
tp8052
a(I18
I17
tp8053
a(I18
I18
tp8054
a(I18
I19
tp8055
a(I19
I15
tp8056
a(I19
I16
tp8057
a(I19
I17
tp8058
a(I19
I18
tp8059
a(I19
I19
tp8060
asg32
g305
sg6
I15
sg10
I60
sg306
(lp8061
g308
asg4
I0
sg29
I100
sg30
g309
sg27
g310
sbs(I6
I8
tp8062
(ilibs
_3
p8063
(dp8064
g4
I0
sg9
I20
sg26
I30
sg7
Nsg8
I300
sg6
I100
sg10
I180
sg11
(lp8065
(I0
I2
tp8066
a(I0
I3
tp8067
a(I0
I4
tp8068
a(I0
I5
tp8069
a(I0
I6
tp8070
a(I0
I7
tp8071
a(I0
I8
tp8072
a(I0
I9
tp8073
a(I0
I10
tp8074
a(I0
I11
tp8075
a(I0
I12
tp8076
a(I0
I13
tp8077
a(I0
I14
tp8078
a(I1
I1
tp8079
a(I1
I2
tp8080
a(I1
I3
tp8081
a(I1
I4
tp8082
a(I1
I5
tp8083
a(I1
I6
tp8084
a(I1
I7
tp8085
a(I1
I8
tp8086
a(I1
I9
tp8087
a(I1
I10
tp8088
a(I1
I11
tp8089
a(I1
I12
tp8090
a(I1
I13
tp8091
a(I1
I14
tp8092
a(I1
I15
tp8093
a(I2
I0
tp8094
a(I2
I1
tp8095
a(I2
I2
tp8096
a(I2
I3
tp8097
a(I2
I4
tp8098
a(I2
I5
tp8099
a(I2
I6
tp8100
a(I2
I7
tp8101
a(I2
I8
tp8102
a(I2
I9
tp8103
a(I2
I10
tp8104
a(I2
I11
tp8105
a(I2
I12
tp8106
a(I2
I13
tp8107
a(I2
I14
tp8108
a(I2
I15
tp8109
a(I2
I16
tp8110
a(I3
I0
tp8111
a(I3
I1
tp8112
a(I3
I2
tp8113
a(I3
I3
tp8114
a(I3
I4
tp8115
a(I3
I5
tp8116
a(I3
I6
tp8117
a(I3
I7
tp8118
a(I3
I8
tp8119
a(I3
I9
tp8120
a(I3
I10
tp8121
a(I3
I11
tp8122
a(I3
I12
tp8123
a(I3
I13
tp8124
a(I3
I14
tp8125
a(I3
I15
tp8126
a(I3
I16
tp8127
a(I4
I0
tp8128
a(I4
I1
tp8129
a(I4
I2
tp8130
a(I4
I3
tp8131
a(I4
I4
tp8132
a(I4
I5
tp8133
a(I4
I6
tp8134
a(I4
I7
tp8135
a(I4
I8
tp8136
a(I4
I9
tp8137
a(I4
I10
tp8138
a(I4
I11
tp8139
a(I4
I12
tp8140
a(I4
I13
tp8141
a(I4
I14
tp8142
a(I4
I15
tp8143
a(I4
I16
tp8144
a(I5
I0
tp8145
a(I5
I1
tp8146
a(I5
I2
tp8147
a(I5
I3
tp8148
a(I5
I4
tp8149
a(I5
I5
tp8150
a(I5
I6
tp8151
a(I5
I7
tp8152
a(I5
I8
tp8153
a(I5
I9
tp8154
a(I5
I10
tp8155
a(I5
I11
tp8156
a(I5
I12
tp8157
a(I5
I13
tp8158
a(I5
I14
tp8159
a(I5
I15
tp8160
a(I5
I16
tp8161
a(I6
I0
tp8162
a(I6
I1
tp8163
a(I6
I2
tp8164
a(I6
I3
tp8165
a(I6
I4
tp8166
a(I6
I5
tp8167
a(I6
I6
tp8168
a(I6
I7
tp8169
a(I6
I8
tp8170
a(I6
I9
tp8171
a(I6
I10
tp8172
a(I6
I11
tp8173
a(I6
I12
tp8174
a(I6
I13
tp8175
a(I6
I14
tp8176
a(I6
I15
tp8177
a(I6
I16
tp8178
a(I6
I17
tp8179
a(I7
I0
tp8180
a(I7
I1
tp8181
a(I7
I2
tp8182
a(I7
I3
tp8183
a(I7
I4
tp8184
a(I7
I5
tp8185
a(I7
I6
tp8186
a(I7
I7
tp8187
a(I7
I8
tp8188
a(I7
I9
tp8189
a(I7
I10
tp8190
a(I7
I11
tp8191
a(I7
I12
tp8192
a(I7
I13
tp8193
a(I7
I14
tp8194
a(I7
I15
tp8195
a(I7
I16
tp8196
a(I8
I0
tp8197
a(I8
I1
tp8198
a(I8
I2
tp8199
a(I8
I3
tp8200
a(I8
I4
tp8201
a(I8
I5
tp8202
a(I8
I6
tp8203
a(I8
I7
tp8204
a(I8
I8
tp8205
a(I8
I9
tp8206
a(I8
I10
tp8207
a(I8
I11
tp8208
a(I8
I12
tp8209
a(I8
I13
tp8210
a(I8
I14
tp8211
a(I8
I15
tp8212
a(I8
I16
tp8213
a(I9
I0
tp8214
a(I9
I1
tp8215
a(I9
I2
tp8216
a(I9
I3
tp8217
a(I9
I4
tp8218
a(I9
I5
tp8219
a(I9
I6
tp8220
a(I9
I7
tp8221
a(I9
I8
tp8222
a(I9
I9
tp8223
a(I9
I10
tp8224
a(I9
I11
tp8225
a(I9
I12
tp8226
a(I9
I13
tp8227
a(I9
I14
tp8228
a(I9
I15
tp8229
a(I9
I16
tp8230
a(I10
I0
tp8231
a(I10
I1
tp8232
a(I10
I2
tp8233
a(I10
I3
tp8234
a(I10
I4
tp8235
a(I10
I5
tp8236
a(I10
I6
tp8237
a(I10
I7
tp8238
a(I10
I8
tp8239
a(I10
I9
tp8240
a(I10
I10
tp8241
a(I10
I11
tp8242
a(I10
I12
tp8243
a(I10
I13
tp8244
a(I10
I14
tp8245
a(I10
I15
tp8246
a(I10
I16
tp8247
a(I11
I1
tp8248
a(I11
I2
tp8249
a(I11
I3
tp8250
a(I11
I4
tp8251
a(I11
I5
tp8252
a(I11
I6
tp8253
a(I11
I7
tp8254
a(I11
I8
tp8255
a(I11
I9
tp8256
a(I11
I10
tp8257
a(I11
I11
tp8258
a(I11
I12
tp8259
a(I11
I13
tp8260
a(I11
I14
tp8261
a(I11
I15
tp8262
a(I12
I2
tp8263
a(I12
I3
tp8264
a(I12
I4
tp8265
a(I12
I5
tp8266
a(I12
I6
tp8267
a(I12
I7
tp8268
a(I12
I8
tp8269
a(I12
I9
tp8270
a(I12
I10
tp8271
a(I12
I11
tp8272
a(I12
I12
tp8273
a(I12
I13
tp8274
a(I12
I14
tp8275
a(I13
I3
tp8276
a(I13
I4
tp8277
a(I13
I5
tp8278
a(I13
I6
tp8279
a(I13
I7
tp8280
a(I13
I8
tp8281
a(I13
I9
tp8282
a(I13
I10
tp8283
a(I13
I11
tp8284
a(I13
I12
tp8285
a(I13
I13
tp8286
a(I14
I4
tp8287
a(I14
I5
tp8288
a(I14
I6
tp8289
a(I14
I7
tp8290
a(I14
I8
tp8291
a(I14
I9
tp8292
a(I14
I10
tp8293
a(I14
I11
tp8294
a(I14
I12
tp8295
a(I15
I8
tp8296
asg27
g270
sg29
I300
sg30
g271
sg32
g272
sbs(I8
I17
tp8297
(ilibs
_Pellet
p8298
(dp8299
g9
I10
sg26
I0
sg7
Nsg8
I100
sg11
(lp8300
(I5
I17
tp8301
a(I6
I15
tp8302
a(I6
I16
tp8303
a(I6
I17
tp8304
a(I6
I18
tp8305
a(I6
I19
tp8306
a(I7
I15
tp8307
a(I7
I16
tp8308
a(I7
I17
tp8309
a(I7
I18
tp8310
a(I7
I19
tp8311
a(I8
I14
tp8312
a(I8
I15
tp8313
a(I8
I16
tp8314
a(I8
I17
tp8315
a(I8
I18
tp8316
a(I8
I19
tp8317
a(I9
I15
tp8318
a(I9
I16
tp8319
a(I9
I17
tp8320
a(I9
I18
tp8321
a(I9
I19
tp8322
a(I10
I15
tp8323
a(I10
I16
tp8324
a(I10
I17
tp8325
a(I10
I18
tp8326
a(I10
I19
tp8327
a(I11
I17
tp8328
asg32
g305
sg6
I15
sg10
I60
sg306
(lp8329
g308
asg4
I0
sg29
I100
sg30
g309
sg27
g310
sbs(I6
I12
tp8330
(ilibs
_3
p8331
(dp8332
g4
I0
sg9
I20
sg26
I30
sg7
Nsg8
I300
sg6
I100
sg10
I180
sg11
(lp8333
(I0
I6
tp8334
a(I0
I7
tp8335
a(I0
I8
tp8336
a(I0
I9
tp8337
a(I0
I10
tp8338
a(I0
I11
tp8339
a(I0
I12
tp8340
a(I0
I13
tp8341
a(I0
I14
tp8342
a(I0
I15
tp8343
a(I0
I16
tp8344
a(I0
I17
tp8345
a(I0
I18
tp8346
a(I1
I5
tp8347
a(I1
I6
tp8348
a(I1
I7
tp8349
a(I1
I8
tp8350
a(I1
I9
tp8351
a(I1
I10
tp8352
a(I1
I11
tp8353
a(I1
I12
tp8354
a(I1
I13
tp8355
a(I1
I14
tp8356
a(I1
I15
tp8357
a(I1
I16
tp8358
a(I1
I17
tp8359
a(I1
I18
tp8360
a(I1
I19
tp8361
a(I2
I4
tp8362
a(I2
I5
tp8363
a(I2
I6
tp8364
a(I2
I7
tp8365
a(I2
I8
tp8366
a(I2
I9
tp8367
a(I2
I10
tp8368
a(I2
I11
tp8369
a(I2
I12
tp8370
a(I2
I13
tp8371
a(I2
I14
tp8372
a(I2
I15
tp8373
a(I2
I16
tp8374
a(I2
I17
tp8375
a(I2
I18
tp8376
a(I2
I19
tp8377
a(I3
I4
tp8378
a(I3
I5
tp8379
a(I3
I6
tp8380
a(I3
I7
tp8381
a(I3
I8
tp8382
a(I3
I9
tp8383
a(I3
I10
tp8384
a(I3
I11
tp8385
a(I3
I12
tp8386
a(I3
I13
tp8387
a(I3
I14
tp8388
a(I3
I15
tp8389
a(I3
I16
tp8390
a(I3
I17
tp8391
a(I3
I18
tp8392
a(I3
I19
tp8393
a(I4
I4
tp8394
a(I4
I5
tp8395
a(I4
I6
tp8396
a(I4
I7
tp8397
a(I4
I8
tp8398
a(I4
I9
tp8399
a(I4
I10
tp8400
a(I4
I11
tp8401
a(I4
I12
tp8402
a(I4
I13
tp8403
a(I4
I14
tp8404
a(I4
I15
tp8405
a(I4
I16
tp8406
a(I4
I17
tp8407
a(I4
I18
tp8408
a(I4
I19
tp8409
a(I5
I4
tp8410
a(I5
I5
tp8411
a(I5
I6
tp8412
a(I5
I7
tp8413
a(I5
I8
tp8414
a(I5
I9
tp8415
a(I5
I10
tp8416
a(I5
I11
tp8417
a(I5
I12
tp8418
a(I5
I13
tp8419
a(I5
I14
tp8420
a(I5
I15
tp8421
a(I5
I16
tp8422
a(I5
I17
tp8423
a(I5
I18
tp8424
a(I5
I19
tp8425
a(I6
I3
tp8426
a(I6
I4
tp8427
a(I6
I5
tp8428
a(I6
I6
tp8429
a(I6
I7
tp8430
a(I6
I8
tp8431
a(I6
I9
tp8432
a(I6
I10
tp8433
a(I6
I11
tp8434
a(I6
I12
tp8435
a(I6
I13
tp8436
a(I6
I14
tp8437
a(I6
I15
tp8438
a(I6
I16
tp8439
a(I6
I17
tp8440
a(I6
I18
tp8441
a(I6
I19
tp8442
a(I7
I4
tp8443
a(I7
I5
tp8444
a(I7
I6
tp8445
a(I7
I7
tp8446
a(I7
I8
tp8447
a(I7
I9
tp8448
a(I7
I10
tp8449
a(I7
I11
tp8450
a(I7
I12
tp8451
a(I7
I13
tp8452
a(I7
I14
tp8453
a(I7
I15
tp8454
a(I7
I16
tp8455
a(I7
I17
tp8456
a(I7
I18
tp8457
a(I7
I19
tp8458
a(I8
I4
tp8459
a(I8
I5
tp8460
a(I8
I6
tp8461
a(I8
I7
tp8462
a(I8
I8
tp8463
a(I8
I9
tp8464
a(I8
I10
tp8465
a(I8
I11
tp8466
a(I8
I12
tp8467
a(I8
I13
tp8468
a(I8
I14
tp8469
a(I8
I15
tp8470
a(I8
I16
tp8471
a(I8
I17
tp8472
a(I8
I18
tp8473
a(I8
I19
tp8474
a(I9
I4
tp8475
a(I9
I5
tp8476
a(I9
I6
tp8477
a(I9
I7
tp8478
a(I9
I8
tp8479
a(I9
I9
tp8480
a(I9
I10
tp8481
a(I9
I11
tp8482
a(I9
I12
tp8483
a(I9
I13
tp8484
a(I9
I14
tp8485
a(I9
I15
tp8486
a(I9
I16
tp8487
a(I9
I17
tp8488
a(I9
I18
tp8489
a(I9
I19
tp8490
a(I10
I4
tp8491
a(I10
I5
tp8492
a(I10
I6
tp8493
a(I10
I7
tp8494
a(I10
I8
tp8495
a(I10
I9
tp8496
a(I10
I10
tp8497
a(I10
I11
tp8498
a(I10
I12
tp8499
a(I10
I13
tp8500
a(I10
I14
tp8501
a(I10
I15
tp8502
a(I10
I16
tp8503
a(I10
I17
tp8504
a(I10
I18
tp8505
a(I10
I19
tp8506
a(I11
I5
tp8507
a(I11
I6
tp8508
a(I11
I7
tp8509
a(I11
I8
tp8510
a(I11
I9
tp8511
a(I11
I10
tp8512
a(I11
I11
tp8513
a(I11
I12
tp8514
a(I11
I13
tp8515
a(I11
I14
tp8516
a(I11
I15
tp8517
a(I11
I16
tp8518
a(I11
I17
tp8519
a(I11
I18
tp8520
a(I11
I19
tp8521
a(I12
I6
tp8522
a(I12
I7
tp8523
a(I12
I8
tp8524
a(I12
I9
tp8525
a(I12
I10
tp8526
a(I12
I11
tp8527
a(I12
I12
tp8528
a(I12
I13
tp8529
a(I12
I14
tp8530
a(I12
I15
tp8531
a(I12
I16
tp8532
a(I12
I17
tp8533
a(I12
I18
tp8534
a(I13
I7
tp8535
a(I13
I8
tp8536
a(I13
I9
tp8537
a(I13
I10
tp8538
a(I13
I11
tp8539
a(I13
I12
tp8540
a(I13
I13
tp8541
a(I13
I14
tp8542
a(I13
I15
tp8543
a(I13
I16
tp8544
a(I13
I17
tp8545
a(I14
I8
tp8546
a(I14
I9
tp8547
a(I14
I10
tp8548
a(I14
I11
tp8549
a(I14
I12
tp8550
a(I14
I13
tp8551
a(I14
I14
tp8552
a(I14
I15
tp8553
a(I14
I16
tp8554
a(I15
I12
tp8555
asg27
g270
sg29
I300
sg30
g271
sg32
g272
sbs(I17
I4
tp8556
(ilibs
_4
p8557
(dp8558
g4
I0
sg5
I01
sg6
I200
sg7
Nsg8
I300
sg9
I40
sg10
I40
sg11
(lp8559
(I15
I4
tp8560
a(I16
I3
tp8561
a(I16
I4
tp8562
a(I16
I5
tp8563
a(I17
I2
tp8564
a(I17
I3
tp8565
a(I17
I4
tp8566
a(I17
I5
tp8567
a(I17
I6
tp8568
a(I18
I3
tp8569
a(I18
I4
tp8570
a(I18
I5
tp8571
a(I19
I4
tp8572
asg26
I30
sg27
g28
sg29
I300
sg30
g31
sg32
g33
sbs(I16
I12
tp8573
(ilibs
_Pellet
p8574
(dp8575
g9
I10
sg26
I0
sg7
Nsg8
I100
sg11
(lp8576
(I13
I12
tp8577
a(I14
I10
tp8578
a(I14
I11
tp8579
a(I14
I12
tp8580
a(I14
I13
tp8581
a(I14
I14
tp8582
a(I15
I10
tp8583
a(I15
I11
tp8584
a(I15
I12
tp8585
a(I15
I13
tp8586
a(I15
I14
tp8587
a(I16
I9
tp8588
a(I16
I10
tp8589
a(I16
I11
tp8590
a(I16
I12
tp8591
a(I16
I13
tp8592
a(I16
I14
tp8593
a(I16
I15
tp8594
a(I17
I10
tp8595
a(I17
I11
tp8596
a(I17
I12
tp8597
a(I17
I13
tp8598
a(I17
I14
tp8599
a(I18
I10
tp8600
a(I18
I11
tp8601
a(I18
I12
tp8602
a(I18
I13
tp8603
a(I18
I14
tp8604
a(I19
I12
tp8605
asg32
g305
sg6
I15
sg10
I60
sg306
(lp8606
g308
asg4
I0
sg29
I100
sg30
g309
sg27
g310
sbs(I14
I11
tp8607
(ilibs
_4
p8608
(dp8609
g4
I0
sg5
I01
sg6
I200
sg7
Nsg8
I300
sg9
I40
sg10
I40
sg11
(lp8610
(I12
I11
tp8611
a(I13
I10
tp8612
a(I13
I11
tp8613
a(I13
I12
tp8614
a(I14
I9
tp8615
a(I14
I10
tp8616
a(I14
I11
tp8617
a(I14
I12
tp8618
a(I14
I13
tp8619
a(I15
I10
tp8620
a(I15
I11
tp8621
a(I15
I12
tp8622
a(I16
I11
tp8623
asg26
I30
sg27
g28
sg29
I300
sg30
g31
sg32
g33
sbs(I12
I15
tp8624
(ilibs
_Pellet
p8625
(dp8626
g9
I10
sg26
I0
sg7
Nsg8
I100
sg11
(lp8627
(I9
I15
tp8628
a(I10
I13
tp8629
a(I10
I14
tp8630
a(I10
I15
tp8631
a(I10
I16
tp8632
a(I10
I17
tp8633
a(I11
I13
tp8634
a(I11
I14
tp8635
a(I11
I15
tp8636
a(I11
I16
tp8637
a(I11
I17
tp8638
a(I12
I12
tp8639
a(I12
I13
tp8640
a(I12
I14
tp8641
a(I12
I15
tp8642
a(I12
I16
tp8643
a(I12
I17
tp8644
a(I12
I18
tp8645
a(I13
I13
tp8646
a(I13
I14
tp8647
a(I13
I15
tp8648
a(I13
I16
tp8649
a(I13
I17
tp8650
a(I14
I13
tp8651
a(I14
I14
tp8652
a(I14
I15
tp8653
a(I14
I16
tp8654
a(I14
I17
tp8655
a(I15
I15
tp8656
asg32
g305
sg6
I15
sg10
I60
sg306
(lp8657
g308
asg4
I0
sg29
I100
sg30
g309
sg27
g310
sbs(I11
I17
tp8658
(ilibs
_Pellet
p8659
(dp8660
g9
I10
sg26
I0
sg7
Nsg8
I100
sg11
(lp8661
(I8
I17
tp8662
a(I9
I15
tp8663
a(I9
I16
tp8664
a(I9
I17
tp8665
a(I9
I18
tp8666
a(I9
I19
tp8667
a(I10
I15
tp8668
a(I10
I16
tp8669
a(I10
I17
tp8670
a(I10
I18
tp8671
a(I10
I19
tp8672
a(I11
I14
tp8673
a(I11
I15
tp8674
a(I11
I16
tp8675
a(I11
I17
tp8676
a(I11
I18
tp8677
a(I11
I19
tp8678
a(I12
I15
tp8679
a(I12
I16
tp8680
a(I12
I17
tp8681
a(I12
I18
tp8682
a(I12
I19
tp8683
a(I13
I15
tp8684
a(I13
I16
tp8685
a(I13
I17
tp8686
a(I13
I18
tp8687
a(I13
I19
tp8688
a(I14
I17
tp8689
asg32
g305
sg6
I15
sg10
I60
sg306
(lp8690
g308
asg4
I0
sg29
I100
sg30
g309
sg27
g310
sbs(I18
I3
tp8691
(ilibs
_Pellet
p8692
(dp8693
g9
I10
sg26
I0
sg7
Nsg8
I100
sg11
(lp8694
(I15
I3
tp8695
a(I16
I1
tp8696
a(I16
I2
tp8697
a(I16
I3
tp8698
a(I16
I4
tp8699
a(I16
I5
tp8700
a(I17
I1
tp8701
a(I17
I2
tp8702
a(I17
I3
tp8703
a(I17
I4
tp8704
a(I17
I5
tp8705
a(I18
I0
tp8706
a(I18
I1
tp8707
a(I18
I2
tp8708
a(I18
I3
tp8709
a(I18
I4
tp8710
a(I18
I5
tp8711
a(I18
I6
tp8712
a(I19
I1
tp8713
a(I19
I2
tp8714
a(I19
I3
tp8715
a(I19
I4
tp8716
a(I19
I5
tp8717
asg32
g305
sg6
I15
sg10
I60
sg306
(lp8718
g308
asg4
I0
sg29
I100
sg30
g309
sg27
g310
sbs(I15
I2
tp8719
(ilibs
_Pellet
p8720
(dp8721
g9
I10
sg26
I0
sg7
Nsg8
I100
sg11
(lp8722
(I12
I2
tp8723
a(I13
I0
tp8724
a(I13
I1
tp8725
a(I13
I2
tp8726
a(I13
I3
tp8727
a(I13
I4
tp8728
a(I14
I0
tp8729
a(I14
I1
tp8730
a(I14
I2
tp8731
a(I14
I3
tp8732
a(I14
I4
tp8733
a(I15
I0
tp8734
a(I15
I1
tp8735
a(I15
I2
tp8736
a(I15
I3
tp8737
a(I15
I4
tp8738
a(I15
I5
tp8739
a(I16
I0
tp8740
a(I16
I1
tp8741
a(I16
I2
tp8742
a(I16
I3
tp8743
a(I16
I4
tp8744
a(I17
I0
tp8745
a(I17
I1
tp8746
a(I17
I2
tp8747
a(I17
I3
tp8748
a(I17
I4
tp8749
a(I18
I2
tp8750
asg32
g305
sg6
I15
sg10
I60
sg306
(lp8751
g308
asg4
I0
sg29
I100
sg30
g309
sg27
g310
sbs(I0
I13
tp8752
(ilibs
_Pellet
p8753
(dp8754
g9
I10
sg26
I0
sg7
Nsg8
I100
sg11
(lp8755
(I0
I10
tp8756
a(I0
I11
tp8757
a(I0
I12
tp8758
a(I0
I13
tp8759
a(I0
I14
tp8760
a(I0
I15
tp8761
a(I0
I16
tp8762
a(I1
I11
tp8763
a(I1
I12
tp8764
a(I1
I13
tp8765
a(I1
I14
tp8766
a(I1
I15
tp8767
a(I2
I11
tp8768
a(I2
I12
tp8769
a(I2
I13
tp8770
a(I2
I14
tp8771
a(I2
I15
tp8772
a(I3
I13
tp8773
asg32
g305
sg6
I15
sg10
I60
sg306
(lp8774
g308
asg4
I0
sg29
I100
sg30
g309
sg27
g310
sbs(I2
I0
tp8775
(ilibs
_Pellet
p8776
(dp8777
g9
I10
sg26
I0
sg7
Nsg8
I100
sg11
(lp8778
(I0
I0
tp8779
a(I0
I1
tp8780
a(I0
I2
tp8781
a(I1
I0
tp8782
a(I1
I1
tp8783
a(I1
I2
tp8784
a(I2
I0
tp8785
a(I2
I1
tp8786
a(I2
I2
tp8787
a(I2
I3
tp8788
a(I3
I0
tp8789
a(I3
I1
tp8790
a(I3
I2
tp8791
a(I4
I0
tp8792
a(I4
I1
tp8793
a(I4
I2
tp8794
a(I5
I0
tp8795
asg32
g305
sg6
I15
sg10
I60
sg306
(lp8796
g308
asg4
I0
sg29
I100
sg30
g309
sg27
g310
sbs(I8
I8
tp8797
(ilibs
_Aqua
p8798
(dp8799
g9
I5
sg26
I30
sg7
Nsg8
I70
sg6
I30
sg10
I120
sg11
(lp8800
(I2
I8
tp8801
a(I3
I5
tp8802
a(I3
I6
tp8803
a(I3
I7
tp8804
a(I3
I8
tp8805
a(I3
I9
tp8806
a(I3
I10
tp8807
a(I3
I11
tp8808
a(I4
I4
tp8809
a(I4
I5
tp8810
a(I4
I6
tp8811
a(I4
I7
tp8812
a(I4
I8
tp8813
a(I4
I9
tp8814
a(I4
I10
tp8815
a(I4
I11
tp8816
a(I4
I12
tp8817
a(I5
I3
tp8818
a(I5
I4
tp8819
a(I5
I5
tp8820
a(I5
I6
tp8821
a(I5
I7
tp8822
a(I5
I8
tp8823
a(I5
I9
tp8824
a(I5
I10
tp8825
a(I5
I11
tp8826
a(I5
I12
tp8827
a(I5
I13
tp8828
a(I6
I3
tp8829
a(I6
I4
tp8830
a(I6
I5
tp8831
a(I6
I6
tp8832
a(I6
I7
tp8833
a(I6
I8
tp8834
a(I6
I9
tp8835
a(I6
I10
tp8836
a(I6
I11
tp8837
a(I6
I12
tp8838
a(I6
I13
tp8839
a(I7
I3
tp8840
a(I7
I4
tp8841
a(I7
I5
tp8842
a(I7
I6
tp8843
a(I7
I7
tp8844
a(I7
I8
tp8845
a(I7
I9
tp8846
a(I7
I10
tp8847
a(I7
I11
tp8848
a(I7
I12
tp8849
a(I7
I13
tp8850
a(I8
I2
tp8851
a(I8
I3
tp8852
a(I8
I4
tp8853
a(I8
I5
tp8854
a(I8
I6
tp8855
a(I8
I7
tp8856
a(I8
I8
tp8857
a(I8
I9
tp8858
a(I8
I10
tp8859
a(I8
I11
tp8860
a(I8
I12
tp8861
a(I8
I13
tp8862
a(I8
I14
tp8863
a(I9
I3
tp8864
a(I9
I4
tp8865
a(I9
I5
tp8866
a(I9
I6
tp8867
a(I9
I7
tp8868
a(I9
I8
tp8869
a(I9
I9
tp8870
a(I9
I10
tp8871
a(I9
I11
tp8872
a(I9
I12
tp8873
a(I9
I13
tp8874
a(I10
I3
tp8875
a(I10
I4
tp8876
a(I10
I5
tp8877
a(I10
I6
tp8878
a(I10
I7
tp8879
a(I10
I8
tp8880
a(I10
I9
tp8881
a(I10
I10
tp8882
a(I10
I11
tp8883
a(I10
I12
tp8884
a(I10
I13
tp8885
a(I11
I3
tp8886
a(I11
I4
tp8887
a(I11
I5
tp8888
a(I11
I6
tp8889
a(I11
I7
tp8890
a(I11
I8
tp8891
a(I11
I9
tp8892
a(I11
I10
tp8893
a(I11
I11
tp8894
a(I11
I12
tp8895
a(I11
I13
tp8896
a(I12
I4
tp8897
a(I12
I5
tp8898
a(I12
I6
tp8899
a(I12
I7
tp8900
a(I12
I8
tp8901
a(I12
I9
tp8902
a(I12
I10
tp8903
a(I12
I11
tp8904
a(I12
I12
tp8905
a(I13
I5
tp8906
a(I13
I6
tp8907
a(I13
I7
tp8908
a(I13
I8
tp8909
a(I13
I9
tp8910
a(I13
I10
tp8911
a(I13
I11
tp8912
a(I14
I8
tp8913
asg27
g1685
sg4
I0
sg29
I70
sg30
g1686
sg32
g1687
sbs(I2
I15
tp8914
(ilibs
_Pellet
p8915
(dp8916
g9
I10
sg26
I0
sg7
Nsg8
I100
sg11
(lp8917
(I0
I13
tp8918
a(I0
I14
tp8919
a(I0
I15
tp8920
a(I0
I16
tp8921
a(I0
I17
tp8922
a(I1
I13
tp8923
a(I1
I14
tp8924
a(I1
I15
tp8925
a(I1
I16
tp8926
a(I1
I17
tp8927
a(I2
I12
tp8928
a(I2
I13
tp8929
a(I2
I14
tp8930
a(I2
I15
tp8931
a(I2
I16
tp8932
a(I2
I17
tp8933
a(I2
I18
tp8934
a(I3
I13
tp8935
a(I3
I14
tp8936
a(I3
I15
tp8937
a(I3
I16
tp8938
a(I3
I17
tp8939
a(I4
I13
tp8940
a(I4
I14
tp8941
a(I4
I15
tp8942
a(I4
I16
tp8943
a(I4
I17
tp8944
a(I5
I15
tp8945
asg32
g305
sg6
I15
sg10
I60
sg306
(lp8946
g308
asg4
I0
sg29
I100
sg30
g309
sg27
g310
sbs(I5
I2
tp8947
(ilibs
_Pellet
p8948
(dp8949
g9
I10
sg26
I0
sg7
Nsg8
I100
sg11
(lp8950
(I2
I2
tp8951
a(I3
I0
tp8952
a(I3
I1
tp8953
a(I3
I2
tp8954
a(I3
I3
tp8955
a(I3
I4
tp8956
a(I4
I0
tp8957
a(I4
I1
tp8958
a(I4
I2
tp8959
a(I4
I3
tp8960
a(I4
I4
tp8961
a(I5
I0
tp8962
a(I5
I1
tp8963
a(I5
I2
tp8964
a(I5
I3
tp8965
a(I5
I4
tp8966
a(I5
I5
tp8967
a(I6
I0
tp8968
a(I6
I1
tp8969
a(I6
I2
tp8970
a(I6
I3
tp8971
a(I6
I4
tp8972
a(I7
I0
tp8973
a(I7
I1
tp8974
a(I7
I2
tp8975
a(I7
I3
tp8976
a(I7
I4
tp8977
a(I8
I2
tp8978
asg32
g305
sg6
I15
sg10
I60
sg306
(lp8979
g308
asg4
I0
sg29
I100
sg30
g309
sg27
g310
sbs(I11
I6
tp8980
(ilibs
_Pellet
p8981
(dp8982
g9
I10
sg26
I0
sg7
Nsg8
I100
sg11
(lp8983
(I8
I6
tp8984
a(I9
I4
tp8985
a(I9
I5
tp8986
a(I9
I6
tp8987
a(I9
I7
tp8988
a(I9
I8
tp8989
a(I10
I4
tp8990
a(I10
I5
tp8991
a(I10
I6
tp8992
a(I10
I7
tp8993
a(I10
I8
tp8994
a(I11
I3
tp8995
a(I11
I4
tp8996
a(I11
I5
tp8997
a(I11
I6
tp8998
a(I11
I7
tp8999
a(I11
I8
tp9000
a(I11
I9
tp9001
a(I12
I4
tp9002
a(I12
I5
tp9003
a(I12
I6
tp9004
a(I12
I7
tp9005
a(I12
I8
tp9006
a(I13
I4
tp9007
a(I13
I5
tp9008
a(I13
I6
tp9009
a(I13
I7
tp9010
a(I13
I8
tp9011
a(I14
I6
tp9012
asg32
g305
sg6
I15
sg10
I60
sg306
(lp9013
g308
asg4
I0
sg29
I100
sg30
g309
sg27
g310
sbs.